Component: ARM Compiler 5.06 update 3 (build 300) Tool: armlink [4d35c9]

==============================================================================

Section Cross References

    startup_stm32f2xx.o(RESET) refers to startup_stm32f2xx.o(STACK) for __initial_sp
    startup_stm32f2xx.o(RESET) refers to startup_stm32f2xx.o(.text) for Reset_Handler
    startup_stm32f2xx.o(RESET) refers to stm32f2xx_it.o(.text) for NMI_Handler
    startup_stm32f2xx.o(.text) refers to system_stm32f2xx.o(.text) for SystemInit
    startup_stm32f2xx.o(.text) refers to entry.o(.ARM.Collect$$$$00000000) for __main
    stm32f2xx_gpio.o(.text) refers to stm32f2xx_rcc.o(.text) for RCC_AHB1PeriphResetCmd
    stm32f2xx_rcc.o(.text) refers to stm32f2xx_rcc.o(.data) for APBAHBPrescTable
    stm32f2xx_usart.o(.text) refers to stm32f2xx_rcc.o(.text) for RCC_APB2PeriphResetCmd
    stm32f2xx_adc.o(.text) refers to stm32f2xx_rcc.o(.text) for RCC_APB2PeriphResetCmd
    stm32f2xx_sdio.o(.text) refers to stm32f2xx_rcc.o(.text) for RCC_APB2PeriphResetCmd
    stm32f2xx_tim.o(.text) refers to stm32f2xx_rcc.o(.text) for RCC_APB2PeriphResetCmd
    system_stm32f2xx.o(.text) refers to system_stm32f2xx.o(.data) for SystemCoreClock
    main.o(.text) refers to board_conf.o(.text) for Board_Init
    main.o(.text) refers to test_sdcard.o(.text) for TEST_MODE_Init
    main.o(.text) refers to systick.o(.text) for Delay_ms
    main.o(.text) refers to led.o(.text) for LED_ON
    main.o(.text) refers to fpga.o(.text) for FPGA_Initial
    main.o(.text) refers to lcd.o(.text) for LCM_Init
    main.o(.text) refers to lcd_test.o(.text) for CTP_Start
    main.o(.text) refers to bsp_bmp.o(.text) for PIC_Load_BMP_ET
    main.o(.text) refers to f2d.o(.text) for __aeabi_f2d
    main.o(.text) refers to printfa.o(i.__0printf) for __2printf
    main.o(.text) refers to ffltui.o(.text) for __aeabi_ui2f
    main.o(.text) refers to fdiv.o(.text) for __aeabi_fdiv
    main.o(.text) refers to usart.o(.text) for USART_EventProcess
    main.o(.text) refers to taskpolling.o(.text) for task_list
    main.o(.text) refers to usart.o(.data) for auto_line
    main.o(.text) refers to main.o(.data) for TEST_MODE
    main.o(.text) refers to key.o(.data) for DIS_NUM
    main.o(.text) refers to common_initialcode_6.5inch_cof_nt36682a_cmos_v4p0_20180704.o(.data) for FPGA_porchPara
    main.o(.text) refers to bsp_bmp.o(.data) for Pic_Load_Finish
    main.o(.text) refers to lcd_test.o(.data) for current_NG
    main.o(.text) refers to main.o(.conststring) for .conststring
    main.o(.text) refers to timer.o(.data) for Timer3_Ms_Counter
    taskpolling.o(.text) refers to key.o(.text) for KEY_GetState
    taskpolling.o(.text) refers to timer.o(.data) for Flag_1ms_Timeup
    taskpolling.o(.text) refers to taskpolling.o(.data) for c0_flag
    taskpolling.o(.text) refers to key.o(.data) for keyStateTemp
    stm32f2xx_it.o(.text) refers to systick.o(.text) for Timer_Decrement
    stm32f2xx_it.o(.text) refers to usart.o(.text) for USART1_RXD
    stm32f2xx_it.o(.text) refers to timer.o(.text) for TIM2_EventProcess
    stm32f2xx_it.o(.text) refers to sdcard.o(.text) for SD_ProcessIRQSrc
    systick.o(.text) refers to printfa.o(i.__0printf) for __2printf
    systick.o(.text) refers to system_stm32f2xx.o(.data) for SystemCoreClock
    systick.o(.text) refers to systick.o(.data) for DelayUsCnt
    board_conf.o(.text) refers to misc.o(.text) for NVIC_PriorityGroupConfig
    board_conf.o(.text) refers to sdcard.o(.text) for SDDMA_VIC_Init
    board_conf.o(.text) refers to stm32f2xx_rcc.o(.text) for RCC_AHB1PeriphClockCmd
    board_conf.o(.text) refers to usart.o(.text) for USART1_Config
    board_conf.o(.text) refers to printfa.o(i.__0printf) for __2printf
    board_conf.o(.text) refers to timer.o(.text) for TIM3_Config
    board_conf.o(.text) refers to ffltui.o(.text) for __aeabi_ui2f
    board_conf.o(.text) refers to fdiv.o(.text) for __aeabi_fdiv
    board_conf.o(.text) refers to f2d.o(.text) for __aeabi_f2d
    board_conf.o(.text) refers to systick.o(.text) for SysTick_Init
    board_conf.o(.text) refers to adc.o(.text) for ADC3_Config
    board_conf.o(.text) refers to lcd_test.o(.text) for TEST_Config_ON
    board_conf.o(.text) refers to stm32f2xx_gpio.o(.text) for GPIO_ReadInputDataBit
    board_conf.o(.text) refers to led.o(.text) for LED_Config
    board_conf.o(.text) refers to key.o(.text) for KEY_Config
    board_conf.o(.text) refers to power.o(.text) for POWER_EN_Config
    board_conf.o(.text) refers to eeprom.o(.text) for EEPROM_I2C_Config
    board_conf.o(.text) refers to digital_sensor.o(.text) for DSENSOR_I2C_Config
    board_conf.o(.text) refers to admesy.o(.text) for Admesy_Init
    board_conf.o(.text) refers to fpga.o(.text) for FPGA_FSMC_Config
    board_conf.o(.text) refers to ssd2828.o(.text) for SSD2828_SPI_Config
    board_conf.o(.text) refers to lcd.o(.text) for LCD_RST_Config
    board_conf.o(.text) refers to printfa.o(i.__0sprintf) for __2sprintf
    board_conf.o(.text) refers to bsp_bmp.o(.text) for SD_Write_Str2File
    board_conf.o(.text) refers to test_otp.o(.data) for OTP_FLAG
    board_conf.o(.text) refers to main.o(.data) for TEST_MODE
    board_conf.o(.text) refers to usart.o(.data) for PC_COM
    board_conf.o(.text) refers to timer.o(.data) for Timer3_Ms_Counter
    board_conf.o(.text) refers to board_conf.o(.conststring) for .conststring
    usart.o(.text) refers to stm32f2xx_rcc.o(.text) for RCC_APB2PeriphClockCmd
    usart.o(.text) refers to stm32f2xx_gpio.o(.text) for GPIO_PinAFConfig
    usart.o(.text) refers to stm32f2xx_usart.o(.text) for USART_Init
    usart.o(.text) refers to led.o(.text) for LED_ON
    usart.o(.text) refers to fpga.o(.text) for FPGA_DisPattern
    usart.o(.text) refers to systick.o(.text) for Delay_ms
    usart.o(.text) refers to usart.o(.data) for PC_COM
    usart.o(.text) refers to usart.o(.bss) for USART_RData
    usart.o(.text) refers to admesy.o(.data) for Admesy_RDataCnt
    usart.o(.text) refers to admesy.o(.bss) for Admesy_RData
    usart.o(.text) refers to ssd2828.o(.text) for IC_Init
    usart.o(.text) refers to fpga.o(.data) for vsum
    usart.o(.text) refers to common_otpcode_nt36672a_v3.o(.text) for ScanBackward
    usart.o(.text) refers to printfa.o(i.__0printf) for __2printf
    usart.o(.text) refers to lcd_test.o(.text) for AOI_Current_Check_Normal
    usart.o(.text) refers to key.o(.text) for KEY_SLEEPIN
    usart.o(.text) refers to lcd.o(.text) for DriverIC_Reset
    usart.o(.text) refers to usart.o(.conststring) for .conststring
    usart.o(.text) refers to common_otpcode_nt36672a_v3.o(.data) for OTP_TIMES
    usart.o(.text) refers to common_initialcode_6.5inch_cof_nt36682a_cmos_v4p0_20180704.o(.data) for SSDInitCode
    usart.o(.text) refers to ffltui.o(.text) for __aeabi_ui2f
    usart.o(.text) refers to fdiv.o(.text) for __aeabi_fdiv
    usart.o(.text) refers to test_otp.o(.text) for AutoVcom
    usart.o(.text) refers to fadd.o(.text) for __aeabi_fsub
    usart.o(.text) refers to f2d.o(.text) for __aeabi_f2d
    usart.o(.text) refers to power.o(.text) for LCMPower_OFF
    usart.o(.text) refers to timer.o(.data) for Timer3_Ms_Counter
    usart.o(.text) refers to ssd2828.o(.data) for SSD_B7
    usart.o(.text) refers to lcd_test.o(.data) for current_NG
    usart.o(.text) refers to cdcmple.o(.text) for __aeabi_cdcmple
    usart.o(.text) refers to cdrcmple.o(.text) for __aeabi_cdrcmple
    usart.o(.text) refers to admesy.o(.text) for Meas_Yxy
    usart.o(.text) refers to cfcmple.o(.text) for __aeabi_cfcmple
    usart.o(.text) refers to main.o(.data) for TEST_MODE
    usart.o(.text) refers to test_otp.o(.data) for OTP_FLAG
    usart.o(.text) refers to key.o(.data) for DIS_NUM_OLD
    timer.o(.text) refers to stm32f2xx_rcc.o(.text) for RCC_APB1PeriphClockCmd
    timer.o(.text) refers to stm32f2xx_tim.o(.text) for TIM_DeInit
    timer.o(.text) refers to lcd.o(.text) for ARM_PWM_Control
    timer.o(.text) refers to printfa.o(i.__0printf) for __2printf
    timer.o(.text) refers to timer.o(.data) for Timer3_Ms_Counter
    admesy.o(.text) refers to usart.o(.text) for USART_printf
    admesy.o(.text) refers to systick.o(.text) for Delay_ms
    admesy.o(.text) refers to atof.o(i.atof) for atof
    admesy.o(.text) refers to d2f.o(.text) for __aeabi_d2f
    admesy.o(.text) refers to f2d.o(.text) for __aeabi_f2d
    admesy.o(.text) refers to printfa.o(i.__0printf) for __2printf
    admesy.o(.text) refers to malloc.o(i.malloc) for malloc
    admesy.o(.text) refers to strtok.o(.text) for strtok
    admesy.o(.text) refers to admesy_flicker.o(.text) for calc_JEITA_flicker
    admesy.o(.text) refers to malloc.o(i.free) for free
    admesy.o(.text) refers to fpga.o(.text) for FPGA_DisPattern
    admesy.o(.text) refers to admesy.o(.data) for Admesy_RDataCnt
    admesy.o(.text) refers to usart.o(.data) for MSE_COM
    admesy.o(.text) refers to admesy.o(.bss) for Admesy_RData
    admesy.o(.text) refers to atoi.o(.text) for atoi
    admesy.o(.text) refers to dadd.o(.text) for __aeabi_dsub
    admesy.o(.text) refers to ddiv.o(.text) for __aeabi_ddiv
    admesy.o(.text) refers to exp.o(i.exp) for exp
    admesy.o(.text) refers to dmul.o(.text) for __aeabi_dmul
    admesy.o(.text) refers to dfixi.o(.text) for __aeabi_d2iz
    admesy_flicker.o(.text) refers to malloc.o(i.malloc) for malloc
    admesy_flicker.o(.text) refers to printfa.o(i.__0printf) for __2printf
    admesy_flicker.o(.text) refers to dfltui.o(.text) for __aeabi_ui2d
    admesy_flicker.o(.text) refers to ddiv.o(.text) for __aeabi_ddiv
    admesy_flicker.o(.text) refers to d2f.o(.text) for __aeabi_d2f
    admesy_flicker.o(.text) refers to f2d.o(.text) for __aeabi_f2d
    admesy_flicker.o(.text) refers to dmul.o(.text) for __aeabi_dmul
    admesy_flicker.o(.text) refers to kiss_fft.o(.text) for kiss_fft_alloc
    admesy_flicker.o(.text) refers to fmul.o(.text) for __aeabi_fmul
    admesy_flicker.o(.text) refers to fadd.o(.text) for __aeabi_fadd
    admesy_flicker.o(.text) refers to sqrt.o(i.sqrt) for sqrt
    admesy_flicker.o(.text) refers to ffltui.o(.text) for __aeabi_ui2f
    admesy_flicker.o(.text) refers to cfcmple.o(.text) for __aeabi_cfcmple
    admesy_flicker.o(.text) refers to malloc.o(i.free) for free
    admesy_flicker.o(.text) refers to cos.o(i.cos) for cos
    admesy_flicker.o(.text) refers to dadd.o(.text) for __aeabi_dadd
    admesy_flicker.o(.text) refers to sin.o(i.sin) for sin
    admesy_flicker.o(.text) refers to cdrcmple.o(.text) for __aeabi_cdrcmple
    admesy_flicker.o(.text) refers to cdcmple.o(.text) for __aeabi_cdcmple
    admesy_flicker.o(.text) refers to log10.o(i.log10) for log10
    admesy_filter.o(.text) refers to malloc.o(i.malloc) for malloc
    admesy_filter.o(.text) refers to printfa.o(i.__0printf) for __2printf
    admesy_filter.o(.text) refers to sqrt.o(i.sqrt) for sqrt
    admesy_filter.o(.text) refers to dflti.o(.text) for __aeabi_i2d
    admesy_filter.o(.text) refers to dmul.o(.text) for __aeabi_dmul
    admesy_filter.o(.text) refers to ddiv.o(.text) for __aeabi_ddiv
    admesy_filter.o(.text) refers to tan.o(i.tan) for tan
    admesy_filter.o(.text) refers to dadd.o(.text) for __aeabi_dadd
    admesy_filter.o(.text) refers to malloc.o(i.free) for free
    kiss_fft.o(.text) refers to fmul.o(.text) for __aeabi_fmul
    kiss_fft.o(.text) refers to fadd.o(.text) for __aeabi_fsub
    kiss_fft.o(.text) refers to f2d.o(.text) for __aeabi_f2d
    kiss_fft.o(.text) refers to dmul.o(.text) for __aeabi_dmul
    kiss_fft.o(.text) refers to dadd.o(.text) for __aeabi_dsub
    kiss_fft.o(.text) refers to d2f.o(.text) for __aeabi_d2f
    kiss_fft.o(.text) refers to malloc.o(i.malloc) for malloc
    kiss_fft.o(.text) refers to malloc.o(i.free) for free
    kiss_fft.o(.text) refers to dflti.o(.text) for __aeabi_i2d
    kiss_fft.o(.text) refers to sqrt.o(i.sqrt) for sqrt
    kiss_fft.o(.text) refers to floor.o(i.floor) for floor
    kiss_fft.o(.text) refers to cdrcmple.o(.text) for __aeabi_cdrcmple
    kiss_fft.o(.text) refers to ddiv.o(.text) for __aeabi_ddiv
    kiss_fft.o(.text) refers to cos.o(i.cos) for cos
    kiss_fft.o(.text) refers to sin.o(i.sin) for sin
    kiss_fft.o(.text) refers to memcpya.o(.text) for __aeabi_memcpy4
    adc.o(.text) refers to stm32f2xx_rcc.o(.text) for RCC_AHB1PeriphClockCmd
    adc.o(.text) refers to stm32f2xx_gpio.o(.text) for GPIO_Init
    adc.o(.text) refers to stm32f2xx_adc.o(.text) for ADC_CommonInit
    adc.o(.text) refers to stm32f2xx_dma.o(.text) for DMA_DeInit
    adc.o(.text) refers to systick.o(.text) for Delay_us
    adc.o(.text) refers to dfltui.o(.text) for __aeabi_ui2d
    adc.o(.text) refers to dadd.o(.text) for __aeabi_dadd
    adc.o(.text) refers to dfixui.o(.text) for __aeabi_d2uiz
    adc.o(.text) refers to dmul.o(.text) for __aeabi_dmul
    adc.o(.text) refers to ddiv.o(.text) for __aeabi_ddiv
    adc.o(.text) refers to d2f.o(.text) for __aeabi_d2f
    adc.o(.text) refers to f2d.o(.text) for __aeabi_f2d
    adc.o(.text) refers to cdrcmple.o(.text) for __aeabi_cdrcmple
    adc.o(.text) refers to printfa.o(i.__0sprintf) for __2sprintf
    adc.o(.text) refers to printfa.o(i.__0printf) for __2printf
    adc.o(.text) refers to fdiv.o(.text) for __aeabi_fdiv
    adc.o(.text) refers to fpga.o(.text) for FPGA_Info_Set
    adc.o(.text) refers to adc.o(.data) for ADC_ConvertedValue
    i2c.o(.text) refers to stm32f2xx_gpio.o(.text) for GPIO_SetBits
    i2c.o(.text) refers to i2c.o(i.I2C_Delay) for I2C_Delay
    i2c.o(.text) refers to i2c.o(.data) for I2C_PIN_SDA
    power.o(.text) refers to stm32f2xx_gpio.o(.text) for GPIO_Init
    power.o(.text) refers to printfa.o(i.__0printf) for __2printf
    power.o(.text) refers to i2c.o(.text) for I2C_Sequential_Write
    power.o(.text) refers to systick.o(.text) for Delay_ms
    power.o(.text) refers to fmul.o(.text) for __aeabi_fmul
    power.o(.text) refers to fadd.o(.text) for __aeabi_fsub
    power.o(.text) refers to ffixui.o(.text) for __aeabi_f2uiz
    power.o(.text) refers to lcd.o(.text) for LCD_PWM
    power.o(.text) refers to power.o(i.POWER_VCI_Set) for POWER_VCI_Set
    power.o(.text) refers to power.o(i.POWER_IOVCC_Reset) for POWER_IOVCC_Reset
    power.o(.text) refers to power.o(i.POWER_VSN_Set) for POWER_VSN_Set
    power.o(.text) refers to power.o(i.POWER_VSP_Set) for POWER_VSP_Set
    power.o(.text) refers to power.o(i.POWER_VCI_Reset) for POWER_VCI_Reset
    power.o(.text) refers to power.o(i.POWER_VSP_Reset) for POWER_VSP_Reset
    power.o(.text) refers to power.o(i.POWER_VSN_Reset) for POWER_VSN_Reset
    power.o(.text) refers to power.o(i.POWER_IOVCC_Set) for POWER_IOVCC_Set
    power.o(.text) refers to i2c.o(.data) for I2C_PORT_SDA
    power.o(.text) refers to power.o(.conststring) for .conststring
    digital_sensor.o(.text) refers to i2c.o(.text) for I2C_Check_Addr
    digital_sensor.o(.text) refers to printfa.o(i.__0printf) for __2printf
    digital_sensor.o(.text) refers to stm32f2xx_gpio.o(.text) for GPIO_Init
    digital_sensor.o(.text) refers to dflti.o(.text) for __aeabi_i2d
    digital_sensor.o(.text) refers to ddiv.o(.text) for __aeabi_ddiv
    digital_sensor.o(.text) refers to dmul.o(.text) for __aeabi_dmul
    digital_sensor.o(.text) refers to d2f.o(.text) for __aeabi_d2f
    digital_sensor.o(.text) refers to fpga.o(.text) for FPGA_DisPattern
    digital_sensor.o(.text) refers to systick.o(.text) for Delay_ms
    digital_sensor.o(.text) refers to i2c.o(.data) for I2C_PORT_SDA
    digital_sensor.o(.text) refers to digital_sensor.o(.data) for DSENSOR_I2C_ADDR
    digital_sensor.o(.text) refers to digital_sensor.o(.conststring) for .conststring
    eeprom.o(.text) refers to stm32f2xx_gpio.o(.text) for GPIO_Init
    eeprom.o(.text) refers to systick.o(.text) for Delay_ms
    eeprom.o(.text) refers to i2c.o(.text) for I2C_Sequential_Write16
    eeprom.o(.text) refers to printfa.o(i.__0printf) for __2printf
    eeprom.o(.text) refers to fpga.o(.text) for FPGA_Info_Visible
    eeprom.o(.text) refers to i2c.o(.data) for I2C_PORT_SDA
    eeprom.o(.text) refers to main.o(.data) for TEST_MODE
    led.o(.text) refers to stm32f2xx_gpio.o(.text) for GPIO_Init
    led.o(.text) refers to led.o(.constdata) for LED_PIN
    led.o(.text) refers to led.o(.data) for LED_PORT
    key.o(.text) refers to stm32f2xx_gpio.o(.text) for GPIO_Init
    key.o(.text) refers to lcd.o(.text) for LCD_SleepIn
    key.o(.text) refers to power.o(.text) for LCMPower_OFF
    key.o(.text) refers to systick.o(.text) for Delay_sec
    key.o(.text) refers to printfa.o(i.__0printf) for __2printf
    key.o(.text) refers to led.o(.text) for LED_OFF
    key.o(.text) refers to ffltui.o(.text) for __aeabi_ui2f
    key.o(.text) refers to fdiv.o(.text) for __aeabi_fdiv
    key.o(.text) refers to f2d.o(.text) for __aeabi_f2d
    key.o(.text) refers to key.o(.data) for key_old
    key.o(.text) refers to lcd_test.o(.data) for current_NG
    key.o(.text) refers to test_sdcard.o(.data) for SD_MODE_ERROR
    key.o(.text) refers to main.o(.data) for TEST_MODE
    key.o(.text) refers to key.o(.conststring) for .conststring
    key.o(.text) refers to timer.o(.data) for Timer3_Ms_Counter
    key.o(.text) refers to fpga.o(.text) for FPGA_DisPattern
    ssd2828.o(.text) refers to stm32f2xx_gpio.o(.text) for GPIO_Init
    ssd2828.o(.text) refers to printfa.o(i.__0printf) for __2printf
    ssd2828.o(.text) refers to systick.o(.text) for Delay_ms
    ssd2828.o(.text) refers to led.o(.text) for LED_OFF
    ssd2828.o(.text) refers to lcd.o(.text) for LCD_PWM
    ssd2828.o(.text) refers to common_otpcode_nt36672a_v3.o(.data) for MAIN_PORT
    ssd2828.o(.text) refers to ssd2828.o(.data) for SSD_B7
    ssd2828.o(.text) refers to common_initialcode_6.5inch_cof_nt36682a_cmos_v4p0_20180704.o(.data) for SSDInitCode
    fpga.o(.text) refers to stm32f2xx_rcc.o(.text) for RCC_AHB3PeriphClockCmd
    fpga.o(.text) refers to stm32f2xx_gpio.o(.text) for GPIO_PinAFConfig
    fpga.o(.text) refers to stm32f2xx_fsmc.o(.text) for FSMC_NORSRAMInit
    fpga.o(.text) refers to systick.o(.text) for Delay_ms
    fpga.o(.text) refers to fpga.o(.data) for hsum
    fpga.o(.text) refers to printfa.o(i.__0printf) for __2printf
    fpga.o(.text) refers to printfa.o(i.__0sprintf) for __2sprintf
    fpga.o(.text) refers to strtok.o(.text) for strtok
    fpga.o(.text) refers to lcd_test.o(.data) for FPGA_NG
    fpga.o(.text) refers to main.o(.data) for TEST_MODE
    fpga.o(.text) refers to nt36672a_fw_update_v1p0.o(.data) for FWVersion
    fpga.o(.text) refers to common_otpcode_nt36672a_v3.o(.data) for OTP_TIMES
    fpga.o(.text) refers to memcpya.o(.text) for __aeabi_memcpy4
    fpga.o(.text) refers to common_initialcode_6.5inch_cof_nt36682a_cmos_v4p0_20180704.o(.data) for FPGA_porchPara
    lcd.o(.text) refers to stm32f2xx_gpio.o(.text) for GPIO_Init
    lcd.o(.text) refers to printfa.o(i.__0printf) for __2printf
    lcd.o(.text) refers to systick.o(.text) for Delay_ms
    lcd.o(.text) refers to ssd2828.o(.text) for WriteSSDReg
    lcd.o(.text) refers to common_otpcode_nt36672a_v3.o(.text) for SendPage
    lcd.o(.text) refers to ssd2828.o(.data) for SSD_B7
    lcd.o(.text) refers to common_otpcode_nt36672a_v3.o(.data) for MAIN_PORT
    lcd.o(.text) refers to lcd.o(.data) for PWM_DUTY
    lcd.o(.text) refers to lcd_test.o(.text) for Connect_Check
    lcd.o(.text) refers to ffltui.o(.text) for __aeabi_ui2f
    lcd.o(.text) refers to fdiv.o(.text) for __aeabi_fdiv
    lcd.o(.text) refers to fadd.o(.text) for __aeabi_fsub
    lcd.o(.text) refers to f2d.o(.text) for __aeabi_f2d
    lcd.o(.text) refers to power.o(.text) for LCMPower_ON
    lcd.o(.text) refers to fpga.o(.text) for FPGA_DisPattern
    lcd.o(.text) refers to printfa.o(i.__0sprintf) for __2sprintf
    lcd.o(.text) refers to nt36672a_fw_update_v1p0.o(.text) for RA_Program_FW
    lcd.o(.text) refers to led.o(.text) for LED_ON
    lcd.o(.text) refers to main.o(.data) for TEST_MODE
    lcd.o(.text) refers to timer.o(.data) for Timer3_Ms_Counter
    lcd.o(.text) refers to usart.o(.data) for debug
    lcd.o(.text) refers to common_initialcode_6.5inch_cof_nt36682a_cmos_v4p0_20180704.o(.data) for SSDInitCode
    lcd.o(.text) refers to nt36672a_fw_update_v1p0.o(.data) for FWVersion
    lcd.o(.text) refers to lcd_test.o(.data) for FW_NG
    sdcard.o(.text) refers to stm32f2xx_sdio.o(.text) for SDIO_ClockCmd
    sdcard.o(.text) refers to stm32f2xx_rcc.o(.text) for RCC_APB2PeriphClockCmd
    sdcard.o(.text) refers to stm32f2xx_gpio.o(.text) for GPIO_PinAFConfig
    sdcard.o(.text) refers to stm32f2xx_dma.o(.text) for DMA_GetFlagStatus
    sdcard.o(.text) refers to sdcard.o(.bss) for SDIO_CmdInitStructure
    sdcard.o(.text) refers to sdcard.o(.data) for RCA
    sdcard.o(.text) refers to printfa.o(i.__0printf) for __2printf
    sdcard.o(.text) refers to misc.o(.text) for NVIC_PriorityGroupConfig
    bsp_bmp.o(.text) refers to printfa.o(i.__0sprintf) for __2sprintf
    bsp_bmp.o(.text) refers to ff.o(.text) for f_mount
    bsp_bmp.o(.text) refers to printfa.o(i.__0printf) for __2printf
    bsp_bmp.o(.text) refers to fpga.o(.text) for FPGA_Info_Set
    bsp_bmp.o(.text) refers to dflti.o(.text) for __aeabi_i2d
    bsp_bmp.o(.text) refers to dmul.o(.text) for __aeabi_dmul
    bsp_bmp.o(.text) refers to ddiv.o(.text) for __aeabi_ddiv
    bsp_bmp.o(.text) refers to dadd.o(.text) for __aeabi_dadd
    bsp_bmp.o(.text) refers to dfixui.o(.text) for __aeabi_d2uiz
    bsp_bmp.o(.text) refers to bsp_bmp.o(.bss) for bmpfs
    bsp_bmp.o(.text) refers to bsp_bmp.o(.data) for bmpres
    bsp_bmp.o(.text) refers to common_otpcode_nt36672a_v3.o(.data) for OTP_TIMES
    bsp_bmp.o(.text) refers to common_initialcode_6.5inch_cof_nt36682a_cmos_v4p0_20180704.o(.data) for FPGA_porchPara
    lcd_test.o(.text) refers to stm32f2xx_gpio.o(.text) for GPIO_Init
    lcd_test.o(.text) refers to systick.o(.text) for Delay_ms
    lcd_test.o(.text) refers to printfa.o(i.__0printf) for __2printf
    lcd_test.o(.text) refers to adc.o(.text) for GetResValue
    lcd_test.o(.text) refers to f2d.o(.text) for __aeabi_f2d
    lcd_test.o(.text) refers to cfrcmple.o(.text) for __aeabi_cfrcmple
    lcd_test.o(.text) refers to cdcmple.o(.text) for __aeabi_cdcmple
    lcd_test.o(.text) refers to fpga.o(.text) for FPGA_DisPattern
    lcd_test.o(.text) refers to led.o(.text) for LED_ON
    lcd_test.o(.text) refers to key.o(.text) for KEY_GetState
    lcd_test.o(.text) refers to cfcmple.o(.text) for __aeabi_cfcmple
    lcd_test.o(.text) refers to common_otpcode_nt36672a_v3.o(.text) for SendPage
    lcd_test.o(.text) refers to ssd2828.o(.text) for MIPI_DCS_Read
    lcd_test.o(.text) refers to lcd_test.o(.data) for delay_cnt
    lcd_test.o(.text) refers to usart.o(.data) for auto_line
    lcd_test.o(.text) refers to common_otpcode_nt36672a_v3.o(.data) for MAIN_PORT
    lcd_test.o(.text) refers to printfa.o(i.__0sprintf) for __2sprintf
    lcd_test.o(.text) refers to bsp_bmp.o(.text) for SD_Write_Str2File
    lcd_test.o(.text) refers to usart.o(.text) for USART_printf
    lcd_test.o(.text) refers to strtok.o(.text) for strtok
    lcd_test.o(.text) refers to atof.o(i.atof) for atof
    lcd_test.o(.text) refers to d2f.o(.text) for __aeabi_d2f
    lcd_test.o(.text) refers to key.o(.data) for DIS_NUM
    lcd_test.o(.text) refers to admesy.o(.data) for Admesy_RDataCnt
    lcd_test.o(.text) refers to admesy.o(.bss) for Admesy_RData
    lcd_test.o(.text) refers to main.o(.data) for TEST_MODE
    lcd_test.o(.text) refers to cdrcmple.o(.text) for __aeabi_cdrcmple
    lcd_test.o(.text) refers to lcd.o(.text) for LEDA_DIM
    lcd_test.o(.text) refers to lcd_test.o(.conststring) for .conststring
    lcd_test.o(.text) refers to power.o(.text) for LCMPower_OFF
    lcd_test.o(.text) refers to test_et1.o(.text) for Test_ET1
    lcd_test.o(.text) refers to test_et2.o(.text) for Test_ET2
    lcd_test.o(.text) refers to test_et3.o(.text) for Test_ET3
    lcd_test.o(.text) refers to test_otp.o(.text) for Test_OTP
    lcd_test.o(.text) refers to test_ra.o(.text) for Test_RA
    lcd_test.o(.text) refers to test_esd.o(.text) for Test_ESD
    lcd_test.o(.text) refers to test_od.o(.text) for Test_OD
    lcd_test.o(.text) refers to test_demo.o(.text) for Test_DEMO
    lcd_test.o(.text) refers to test_ctp.o(.text) for Test_CTP
    lcd_test.o(.text) refers to test_oqc1.o(.text) for Test_OQC1
    lcd_test.o(.text) refers to test_debug.o(.text) for Test_DEBUG
    lcd_test.o(.text) refers to common_initialcode_6.5inch_cof_nt36682a_cmos_v4p0_20180704.o(.data) for ET2_InitCode
    test_debug.o(.text) refers to fpga.o(.text) for FPGA_Info_Visible
    test_debug.o(.text) refers to key.o(.data) for TOTAL_DIS_NUM
    test_demo.o(.text) refers to fpga.o(.text) for FPGA_DisPattern
    test_demo.o(.text) refers to key.o(.data) for TOTAL_DIS_NUM
    test_od.o(.text) refers to fpga.o(.text) for FPGA_Info_Visible
    test_od.o(.text) refers to systick.o(.text) for Delay_ms
    test_od.o(.text) refers to common_otpcode_nt36672a_v3.o(.text) for ScanBackward
    test_od.o(.text) refers to lcd.o(.text) for LEDA_DIM
    test_od.o(.text) refers to key.o(.text) for KEY_SLEEPIN
    test_od.o(.text) refers to key.o(.data) for TOTAL_DIS_NUM
    test_od.o(.text) refers to lcd_test.o(.data) for SPEC_LEDA_MIN
    test_et1.o(.text) refers to fpga.o(.text) for FPGA_Info_Visible
    test_et1.o(.text) refers to key.o(.text) for KEY_SLEEPIN
    test_et1.o(.text) refers to systick.o(.text) for Delay_ms
    test_et1.o(.text) refers to key.o(.data) for TOTAL_DIS_NUM
    test_et2.o(.text) refers to fpga.o(.text) for FPGA_Info_Visible
    test_et2.o(.text) refers to common_otpcode_nt36672a_v3.o(.text) for ScanBackward
    test_et2.o(.text) refers to printfa.o(i.__0printf) for __2printf
    test_et2.o(.text) refers to systick.o(.text) for Delay_ms
    test_et2.o(.text) refers to lcd.o(.text) for LEDA_DIM
    test_et2.o(.text) refers to bsp_bmp.o(.text) for PIC_Load_BMP_ET
    test_et2.o(.text) refers to key.o(.text) for KEY_SLEEPIN
    test_et2.o(.text) refers to key.o(.data) for TOTAL_DIS_NUM
    test_et2.o(.text) refers to lcd_test.o(.data) for SPEC_LEDA_MIN
    test_et2.o(.text) refers to bsp_bmp.o(.data) for Pic_Load_Finish
    test_et3.o(.text) refers to fpga.o(.text) for FPGA_Info_Visible
    test_et3.o(.text) refers to common_otpcode_nt36672a_v3.o(.text) for ScanBackward
    test_et3.o(.text) refers to systick.o(.text) for Delay_ms
    test_et3.o(.text) refers to key.o(.text) for KEY_SLEEPIN
    test_et3.o(.text) refers to key.o(.data) for TOTAL_DIS_NUM
    test_otp.o(.text) refers to diskio.o(.text) for disk_initialize
    test_otp.o(.text) refers to fpga.o(.text) for FPGA_Info_Visible
    test_otp.o(.text) refers to printfa.o(i.__0printf) for __2printf
    test_otp.o(.text) refers to ff.o(.text) for f_mount
    test_otp.o(.text) refers to printfa.o(i.__0sprintf) for __2sprintf
    test_otp.o(.text) refers to ffltui.o(.text) for __aeabi_ui2f
    test_otp.o(.text) refers to fdiv.o(.text) for __aeabi_fdiv
    test_otp.o(.text) refers to f2d.o(.text) for __aeabi_f2d
    test_otp.o(.text) refers to systick.o(.text) for Delay_ms
    test_otp.o(.text) refers to common_otpcode_nt36672a_v3.o(.text) for VCOM_Set
    test_otp.o(.text) refers to digital_sensor.o(.text) for DSENSOR_I2C_GetFlicker
    test_otp.o(.text) refers to admesy.o(.text) for Meas_Flicker
    test_otp.o(.text) refers to cfcmple.o(.text) for __aeabi_cfcmpeq
    test_otp.o(.text) refers to cfrcmple.o(.text) for __aeabi_cfrcmple
    test_otp.o(.text) refers to fadd.o(.text) for __aeabi_fsub
    test_otp.o(.text) refers to lcd_test.o(.data) for SDCard_NG
    test_otp.o(.text) refers to test_otp.o(.bss) for OTPInfo_FilePath
    test_otp.o(.text) refers to test_otp.o(.conststring) for .conststring
    test_otp.o(.text) refers to usart.o(.data) for auto_line
    test_otp.o(.text) refers to common_otpcode_nt36672a_v3.o(.data) for vcom_best
    test_otp.o(.text) refers to timer.o(.data) for Timer3_Ms_Counter
    test_otp.o(.text) refers to admesy.o(.data) for MSE_State
    test_otp.o(.text) refers to cdrcmple.o(.text) for __aeabi_cdrcmple
    test_otp.o(.text) refers to strtok.o(.text) for strtok
    test_otp.o(.text) refers to malloc.o(i.malloc) for malloc
    test_otp.o(.text) refers to atoi.o(.text) for atoi
    test_otp.o(.text) refers to dfltui.o(.text) for __aeabi_ui2d
    test_otp.o(.text) refers to ddiv.o(.text) for __aeabi_ddiv
    test_otp.o(.text) refers to log10.o(i.log10) for log10
    test_otp.o(.text) refers to dadd.o(.text) for __aeabi_dsub
    test_otp.o(.text) refers to test_otp.o(.data) for flicker_best
    test_otp.o(.text) refers to cdcmple.o(.text) for __aeabi_cdcmple
    test_otp.o(.text) refers to malloc.o(i.free) for free
    test_otp.o(.text) refers to d2f.o(.text) for __aeabi_d2f
    test_otp.o(.text) refers to stm32f2xx_gpio.o(.text) for GPIO_SetBits
    test_otp.o(.text) refers to led.o(.text) for LED_ON
    test_otp.o(.text) refers to key.o(.data) for TOTAL_DIS_NUM
    test_otp.o(.text) refers to lcd.o(.text) for LCD_SleepIn
    test_otp.o(.text) refers to power.o(.text) for LCMPower_OFF
    test_otp.o(.text) refers to pow.o(i.pow) for pow
    test_ra.o(.text) refers to stm32f2xx_gpio.o(.text) for GPIO_SetBits
    test_ra.o(.text) refers to systick.o(.text) for Delay_us
    test_esd.o(.text) refers to lcd.o(.text) for LCD_PWM
    test_esd.o(.text) refers to fpga.o(.text) for FPGA_Info_Visible
    test_esd.o(.text) refers to systick.o(.text) for Delay_ms
    test_esd.o(.text) refers to common_otpcode_nt36672a_v3.o(.text) for ScanBackward
    test_esd.o(.text) refers to bsp_bmp.o(.text) for PIC_Load_BMP_ET
    test_esd.o(.text) refers to printfa.o(i.__0printf) for __2printf
    test_esd.o(.text) refers to lcd_test.o(.text) for ESD_Fail_Recover
    test_esd.o(.text) refers to key.o(.data) for TOTAL_DIS_NUM
    test_esd.o(.text) refers to lcd_test.o(.data) for SPEC_LEDA_MIN
    test_esd.o(.text) refers to bsp_bmp.o(.data) for Pic_Load_Finish
    test_ctp.o(.text) refers to fpga.o(.text) for FPGA_Info_Visible
    test_ctp.o(.text) refers to lcd.o(.text) for MIPI_SleepMode_OFF
    test_ctp.o(.text) refers to common_otpcode_nt36672a_v3.o(.text) for ScanForward
    test_ctp.o(.text) refers to key.o(.data) for TOTAL_DIS_NUM
    test_oqc1.o(.text) refers to fpga.o(.text) for FPGA_Info_Visible
    test_oqc1.o(.text) refers to common_otpcode_nt36672a_v3.o(.text) for ScanBackward
    test_oqc1.o(.text) refers to systick.o(.text) for Delay_ms
    test_oqc1.o(.text) refers to lcd.o(.text) for LEDA_DIM
    test_oqc1.o(.text) refers to bsp_bmp.o(.text) for PIC_Load_BMP_ET
    test_oqc1.o(.text) refers to key.o(.text) for KEY_SLEEPIN
    test_oqc1.o(.text) refers to key.o(.data) for TOTAL_DIS_NUM
    test_oqc1.o(.text) refers to lcd_test.o(.data) for SPEC_LEDA_MIN
    test_oqc1.o(.text) refers to bsp_bmp.o(.data) for Pic_Load_Finish
    test_sdcard.o(.text) refers to printfa.o(i.__0sprintf) for __2sprintf
    test_sdcard.o(.text) refers to strstr.o(.text) for strstr
    test_sdcard.o(.text) refers to strlen.o(.text) for strlen
    test_sdcard.o(.text) refers to strncpy.o(.text) for strncpy
    test_sdcard.o(.text) refers to strtok.o(.text) for strtok
    test_sdcard.o(.text) refers to atoi.o(.text) for atoi
    test_sdcard.o(.text) refers to atof.o(i.atof) for atof
    test_sdcard.o(.text) refers to dmul.o(.text) for __aeabi_dmul
    test_sdcard.o(.text) refers to dfixi.o(.text) for __aeabi_d2iz
    test_sdcard.o(.text) refers to fpga.o(.text) for FPGA_DisPattern
    test_sdcard.o(.text) refers to lcd.o(.text) for LCD_SleepIn
    test_sdcard.o(.text) refers to systick.o(.text) for Delay_ms
    test_sdcard.o(.text) refers to bsp_bmp.o(.text) for PIC_Load_BMP_ET
    test_sdcard.o(.text) refers to key.o(.text) for KEY_SLEEPIN
    test_sdcard.o(.text) refers to common_otpcode_nt36672a_v3.o(.text) for ScanForward
    test_sdcard.o(.text) refers to lcd_test.o(.data) for SPEC_LEDA_MIN
    test_sdcard.o(.text) refers to test_sdcard.o(.bss) for Patten_Buf
    test_sdcard.o(.text) refers to key.o(.data) for DIS_NUM
    test_sdcard.o(.text) refers to bsp_bmp.o(.data) for Pic_Load_Finish
    test_sdcard.o(.text) refers to test_sdcard.o(.data) for LPatNum
    common_otpcode_nt36672a_v3.o(.text) refers to ssd2828.o(.text) for MIPI_DCS_Write
    common_otpcode_nt36672a_v3.o(.text) refers to systick.o(.text) for Delay_ms
    common_otpcode_nt36672a_v3.o(.text) refers to printfa.o(i.__0printf) for __2printf
    common_otpcode_nt36672a_v3.o(.text) refers to dfltui.o(.text) for __aeabi_ui2d
    common_otpcode_nt36672a_v3.o(.text) refers to dmul.o(.text) for __aeabi_dmul
    common_otpcode_nt36672a_v3.o(.text) refers to dadd.o(.text) for __aeabi_dadd
    common_otpcode_nt36672a_v3.o(.text) refers to dfixui.o(.text) for __aeabi_d2uiz
    common_otpcode_nt36672a_v3.o(.text) refers to ffixui.o(.text) for __aeabi_f2uiz
    common_otpcode_nt36672a_v3.o(.text) refers to lcd.o(.text) for LCD_DisplayOff
    common_otpcode_nt36672a_v3.o(.text) refers to ssd2828.o(.data) for SSD_B7
    common_otpcode_nt36672a_v3.o(.text) refers to common_otpcode_nt36672a_v3.o(.data) for MAIN_PORT
    common_otpcode_nt36672a_v3.o(.text) refers to usart.o(.data) for GAMMAEXPERT
    common_otpcode_nt36672a_v3.o(.text) refers to test_otp.o(.data) for chroma_Lv
    common_otpcode_nt36672a_v3.o(.text) refers to power.o(.text) for LCMPower_ON
    common_otpcode_nt36672a_v3.o(.text) refers to fpga.o(.text) for FPGA_DisPattern
    common_otpcode_nt36672a_v3.o(.text) refers to common_otpcode_nt36672a_v3.o(.conststring) for .conststring
    common_otpcode_nt36672a_v3.o(.text) refers to common_initialcode_6.5inch_cof_nt36682a_cmos_v4p0_20180704.o(.data) for SSDInitCode
    nt36672a_fw_update_v1p0.o(.text) refers to printfa.o(i.__0printf) for __2printf
    nt36672a_fw_update_v1p0.o(.text) refers to printfa.o(i.__0sprintf) for __2sprintf
    nt36672a_fw_update_v1p0.o(.text) refers to ff.o(.text) for f_mount
    nt36672a_fw_update_v1p0.o(.text) refers to strlen.o(.text) for strlen
    nt36672a_fw_update_v1p0.o(.text) refers to strncpy.o(.text) for strncpy
    nt36672a_fw_update_v1p0.o(.text) refers to stm32f2xx_gpio.o(.text) for GPIO_Init
    nt36672a_fw_update_v1p0.o(.text) refers to systick.o(.text) for Delay_us
    nt36672a_fw_update_v1p0.o(.text) refers to nt36672a_fw_update_v1p0.o(.bss) for FW_project
    nt36672a_fw_update_v1p0.o(.text) refers to nt36672a_fw_update_v1p0.o(.data) for fileSize
    nt36672a_fw_update_v1p0.o(.text) refers to main.o(.data) for TEST_MODE
    nt36672a_fw_update_v1p0.o(.text) refers to malloc.o(i.malloc) for malloc
    nt36672a_fw_update_v1p0.o(.text) refers to nt36672a_fw_update_v1p0.o(.conststring) for .conststring
    nt36672a_fw_update_v1p0.o(.text) refers to memseta.o(.text) for __aeabi_memclr4
    ff.o(.text) refers to diskio.o(.text) for disk_write
    ff.o(.text) refers to ccsbcs.o(.text) for ff_wtoupper
    ff.o(.text) refers to ff.o(.constdata) for LfnOfs
    ff.o(.text) refers to ff.o(.data) for FatFs
    ff.o(.text) refers to ff.o(.bss) for LfnBuf
    diskio.o(.text) refers to sdcard.o(.text) for SD_Init
    diskio.o(.text) refers to printfa.o(i.__0printf) for __2printf
    ccsbcs.o(.text) refers to ccsbcs.o(.constdata) for Tbl
    atof.o(i.__softfp_atof) refers (Special) to iusefp.o(.text) for __I$use$fp
    atof.o(i.__softfp_atof) refers to errno.o(i.__read_errno) for __read_errno
    atof.o(i.__softfp_atof) refers to strtod.o(.text) for __strtod_int
    atof.o(i.__softfp_atof) refers to errno.o(i.__set_errno) for __set_errno
    atof.o(i.atof) refers (Special) to iusefp.o(.text) for __I$use$fp
    atof.o(i.atof) refers to errno.o(i.__read_errno) for __read_errno
    atof.o(i.atof) refers to strtod.o(.text) for __strtod_int
    atof.o(i.atof) refers to errno.o(i.__set_errno) for __set_errno
    cos.o(i.__softfp_cos) refers (Special) to iusefp.o(.text) for __I$use$fp
    cos.o(i.__softfp_cos) refers to cos.o(i.cos) for cos
    cos.o(i.cos) refers (Special) to iusefp.o(.text) for __I$use$fp
    cos.o(i.cos) refers to errno.o(i.__set_errno) for __set_errno
    cos.o(i.cos) refers to dunder.o(i.__mathlib_dbl_invalid) for __mathlib_dbl_invalid
    cos.o(i.cos) refers to dunder.o(i.__mathlib_dbl_infnan) for __mathlib_dbl_infnan
    cos.o(i.cos) refers to rred.o(i.__ieee754_rem_pio2) for __ieee754_rem_pio2
    cos.o(i.cos) refers to sin_i.o(i.__kernel_sin) for __kernel_sin
    cos.o(i.cos) refers to cos_i.o(i.__kernel_cos) for __kernel_cos
    cos_x.o(i.____softfp_cos$lsc) refers (Special) to iusefp.o(.text) for __I$use$fp
    cos_x.o(i.____softfp_cos$lsc) refers to cos_x.o(i.__cos$lsc) for __cos$lsc
    cos_x.o(i.__cos$lsc) refers (Special) to iusefp.o(.text) for __I$use$fp
    cos_x.o(i.__cos$lsc) refers to errno.o(i.__set_errno) for __set_errno
    cos_x.o(i.__cos$lsc) refers to dunder.o(i.__mathlib_dbl_infnan) for __mathlib_dbl_infnan
    cos_x.o(i.__cos$lsc) refers to rred.o(i.__ieee754_rem_pio2) for __ieee754_rem_pio2
    cos_x.o(i.__cos$lsc) refers to sin_i.o(i.__kernel_sin) for __kernel_sin
    cos_x.o(i.__cos$lsc) refers to cos_i.o(i.__kernel_cos) for __kernel_cos
    exp.o(i.__softfp_exp) refers (Special) to iusefp.o(.text) for __I$use$fp
    exp.o(i.__softfp_exp) refers to exp.o(i.exp) for exp
    exp.o(i.exp) refers (Special) to iusefp.o(.text) for __I$use$fp
    exp.o(i.exp) refers to dunder.o(i.__mathlib_dbl_infnan) for __mathlib_dbl_infnan
    exp.o(i.exp) refers to cdrcmple.o(.text) for __aeabi_cdrcmple
    exp.o(i.exp) refers to errno.o(i.__set_errno) for __set_errno
    exp.o(i.exp) refers to dunder.o(i.__mathlib_dbl_overflow) for __mathlib_dbl_overflow
    exp.o(i.exp) refers to cdcmple.o(.text) for __aeabi_cdcmple
    exp.o(i.exp) refers to dunder.o(i.__mathlib_dbl_underflow) for __mathlib_dbl_underflow
    exp.o(i.exp) refers to dadd.o(.text) for __aeabi_dsub
    exp.o(i.exp) refers to dmul.o(.text) for __aeabi_dmul
    exp.o(i.exp) refers to dfixi.o(.text) for __aeabi_d2iz
    exp.o(i.exp) refers to dflti.o(.text) for __aeabi_i2d
    exp.o(i.exp) refers to poly.o(i.__kernel_poly) for __kernel_poly
    exp.o(i.exp) refers to ddiv.o(.text) for __aeabi_ddiv
    exp.o(i.exp) refers to dscalb.o(.text) for __ARM_scalbn
    exp.o(i.exp) refers to fpclassify.o(i.__ARM_fpclassify) for __ARM_fpclassify
    exp.o(i.exp) refers to exp.o(.constdata) for .constdata
    exp.o(.constdata) refers (Special) to iusefp.o(.text) for __I$use$fp
    exp_x.o(i.____softfp_exp$lsc) refers (Special) to iusefp.o(.text) for __I$use$fp
    exp_x.o(i.____softfp_exp$lsc) refers to exp_x.o(i.__exp$lsc) for __exp$lsc
    exp_x.o(i.__exp$lsc) refers (Special) to iusefp.o(.text) for __I$use$fp
    exp_x.o(i.__exp$lsc) refers to dunder.o(i.__mathlib_dbl_infnan) for __mathlib_dbl_infnan
    exp_x.o(i.__exp$lsc) refers to cdrcmple.o(.text) for __aeabi_cdrcmple
    exp_x.o(i.__exp$lsc) refers to errno.o(i.__set_errno) for __set_errno
    exp_x.o(i.__exp$lsc) refers to cdcmple.o(.text) for __aeabi_cdcmple
    exp_x.o(i.__exp$lsc) refers to dadd.o(.text) for __aeabi_dsub
    exp_x.o(i.__exp$lsc) refers to dmul.o(.text) for __aeabi_dmul
    exp_x.o(i.__exp$lsc) refers to dfixi.o(.text) for __aeabi_d2iz
    exp_x.o(i.__exp$lsc) refers to dflti.o(.text) for __aeabi_i2d
    exp_x.o(i.__exp$lsc) refers to poly.o(i.__kernel_poly) for __kernel_poly
    exp_x.o(i.__exp$lsc) refers to ddiv.o(.text) for __aeabi_ddiv
    exp_x.o(i.__exp$lsc) refers to dscalb.o(.text) for __ARM_scalbn
    exp_x.o(i.__exp$lsc) refers to qnan.o(.constdata) for __mathlib_zero
    exp_x.o(i.__exp$lsc) refers to exp_x.o(.constdata) for .constdata
    exp_x.o(.constdata) refers (Special) to iusefp.o(.text) for __I$use$fp
    floor.o(i.__softfp_floor) refers (Special) to iusefp.o(.text) for __I$use$fp
    floor.o(i.__softfp_floor) refers to floor.o(i.floor) for floor
    floor.o(i.floor) refers (Special) to iusefp.o(.text) for __I$use$fp
    floor.o(i.floor) refers to dadd.o(.text) for __aeabi_dadd
    floor.o(i.floor) refers to cdrcmple.o(.text) for __aeabi_cdrcmple
    log10.o(i.__softfp_log10) refers (Special) to iusefp.o(.text) for __I$use$fp
    log10.o(i.__softfp_log10) refers to log10.o(i.log10) for log10
    log10.o(i.log10) refers (Special) to iusefp.o(.text) for __I$use$fp
    log10.o(i.log10) refers to dunder.o(i.__mathlib_dbl_infnan) for __mathlib_dbl_infnan
    log10.o(i.log10) refers to errno.o(i.__set_errno) for __set_errno
    log10.o(i.log10) refers to dunder.o(i.__mathlib_dbl_invalid) for __mathlib_dbl_invalid
    log10.o(i.log10) refers to dunder.o(i.__mathlib_dbl_divzero) for __mathlib_dbl_divzero
    log10.o(i.log10) refers to dscalb.o(.text) for __ARM_scalbn
    log10.o(i.log10) refers to dflti.o(.text) for __aeabi_i2d
    log10.o(i.log10) refers to log.o(i.log) for log
    log10.o(i.log10) refers to dmul.o(.text) for __aeabi_dmul
    log10.o(i.log10) refers to dadd.o(.text) for __aeabi_dadd
    log10_x.o(i.____softfp_log10$lsc) refers (Special) to iusefp.o(.text) for __I$use$fp
    log10_x.o(i.____softfp_log10$lsc) refers to log10_x.o(i.__log10$lsc) for __log10$lsc
    log10_x.o(i.__log10$lsc) refers (Special) to iusefp.o(.text) for __I$use$fp
    log10_x.o(i.__log10$lsc) refers to dunder.o(i.__mathlib_dbl_infnan) for __mathlib_dbl_infnan
    log10_x.o(i.__log10$lsc) refers to errno.o(i.__set_errno) for __set_errno
    log10_x.o(i.__log10$lsc) refers to dscalb.o(.text) for __ARM_scalbn
    log10_x.o(i.__log10$lsc) refers to dflti.o(.text) for __aeabi_i2d
    log10_x.o(i.__log10$lsc) refers to log.o(i.log) for log
    log10_x.o(i.__log10$lsc) refers to dmul.o(.text) for __aeabi_dmul
    log10_x.o(i.__log10$lsc) refers to dadd.o(.text) for __aeabi_dadd
    pow.o(i.__softfp_pow) refers (Special) to iusefp.o(.text) for __I$use$fp
    pow.o(i.__softfp_pow) refers to pow.o(i.pow) for pow
    pow.o(i.pow) refers (Special) to iusefp.o(.text) for __I$use$fp
    pow.o(i.pow) refers to dunder.o(i.__mathlib_dbl_infnan2) for __mathlib_dbl_infnan2
    pow.o(i.pow) refers to errno.o(i.__set_errno) for __set_errno
    pow.o(i.pow) refers to dunder.o(i.__mathlib_dbl_divzero) for __mathlib_dbl_divzero
    pow.o(i.pow) refers to ddiv.o(.text) for __aeabi_ddiv
    pow.o(i.pow) refers to sqrt.o(i.sqrt) for sqrt
    pow.o(i.pow) refers to dmul.o(.text) for __aeabi_dmul
    pow.o(i.pow) refers to dflti.o(.text) for __aeabi_i2d
    pow.o(i.pow) refers to dunder.o(i.__mathlib_dbl_invalid) for __mathlib_dbl_invalid
    pow.o(i.pow) refers to dunder.o(i.__mathlib_dbl_overflow) for __mathlib_dbl_overflow
    pow.o(i.pow) refers to dunder.o(i.__mathlib_dbl_underflow) for __mathlib_dbl_underflow
    pow.o(i.pow) refers to dadd.o(.text) for __aeabi_dsub
    pow.o(i.pow) refers to dscalb.o(.text) for __ARM_scalbn
    pow.o(i.pow) refers to qnan.o(.constdata) for __mathlib_zero
    pow.o(i.pow) refers to poly.o(i.__kernel_poly) for __kernel_poly
    pow.o(i.pow) refers to cdrcmple.o(.text) for __aeabi_cdrcmple
    pow.o(i.pow) refers to pow.o(.constdata) for .constdata
    pow.o(i.pow) refers to fpclassify.o(i.__ARM_fpclassify) for __ARM_fpclassify
    pow.o(.constdata) refers (Special) to iusefp.o(.text) for __I$use$fp
    pow_x.o(i.____softfp_pow$lsc) refers (Special) to iusefp.o(.text) for __I$use$fp
    pow_x.o(i.____softfp_pow$lsc) refers to pow_x.o(i.__pow$lsc) for __pow$lsc
    pow_x.o(i.__pow$lsc) refers (Special) to iusefp.o(.text) for __I$use$fp
    pow_x.o(i.__pow$lsc) refers to dunder.o(i.__mathlib_dbl_infnan2) for __mathlib_dbl_infnan2
    pow_x.o(i.__pow$lsc) refers to errno.o(i.__set_errno) for __set_errno
    pow_x.o(i.__pow$lsc) refers to ddiv.o(.text) for __aeabi_ddiv
    pow_x.o(i.__pow$lsc) refers to sqrt.o(i.sqrt) for sqrt
    pow_x.o(i.__pow$lsc) refers to dmul.o(.text) for __aeabi_dmul
    pow_x.o(i.__pow$lsc) refers to dflti.o(.text) for __aeabi_i2d
    pow_x.o(i.__pow$lsc) refers to dadd.o(.text) for __aeabi_dsub
    pow_x.o(i.__pow$lsc) refers to dscalb.o(.text) for __ARM_scalbn
    pow_x.o(i.__pow$lsc) refers to qnan.o(.constdata) for __mathlib_zero
    pow_x.o(i.__pow$lsc) refers to poly.o(i.__kernel_poly) for __kernel_poly
    pow_x.o(i.__pow$lsc) refers to cdrcmple.o(.text) for __aeabi_cdrcmple
    pow_x.o(i.__pow$lsc) refers to pow_x.o(.constdata) for .constdata
    pow_x.o(.constdata) refers (Special) to iusefp.o(.text) for __I$use$fp
    sin.o(i.__softfp_sin) refers (Special) to iusefp.o(.text) for __I$use$fp
    sin.o(i.__softfp_sin) refers to sin.o(i.sin) for sin
    sin.o(i.sin) refers (Special) to iusefp.o(.text) for __I$use$fp
    sin.o(i.sin) refers to errno.o(i.__set_errno) for __set_errno
    sin.o(i.sin) refers to dunder.o(i.__mathlib_dbl_invalid) for __mathlib_dbl_invalid
    sin.o(i.sin) refers to dunder.o(i.__mathlib_dbl_infnan) for __mathlib_dbl_infnan
    sin.o(i.sin) refers to rred.o(i.__ieee754_rem_pio2) for __ieee754_rem_pio2
    sin.o(i.sin) refers to cos_i.o(i.__kernel_cos) for __kernel_cos
    sin.o(i.sin) refers to sin_i.o(i.__kernel_sin) for __kernel_sin
    sin_x.o(i.____softfp_sin$lsc) refers (Special) to iusefp.o(.text) for __I$use$fp
    sin_x.o(i.____softfp_sin$lsc) refers to sin_x.o(i.__sin$lsc) for __sin$lsc
    sin_x.o(i.__sin$lsc) refers (Special) to iusefp.o(.text) for __I$use$fp
    sin_x.o(i.__sin$lsc) refers to errno.o(i.__set_errno) for __set_errno
    sin_x.o(i.__sin$lsc) refers to dunder.o(i.__mathlib_dbl_infnan) for __mathlib_dbl_infnan
    sin_x.o(i.__sin$lsc) refers to rred.o(i.__ieee754_rem_pio2) for __ieee754_rem_pio2
    sin_x.o(i.__sin$lsc) refers to cos_i.o(i.__kernel_cos) for __kernel_cos
    sin_x.o(i.__sin$lsc) refers to sin_i.o(i.__kernel_sin) for __kernel_sin
    sqrt.o(i.__softfp_sqrt) refers (Special) to iusefp.o(.text) for __I$use$fp
    sqrt.o(i.__softfp_sqrt) refers to dsqrt.o(.text) for _dsqrt
    sqrt.o(i.__softfp_sqrt) refers to errno.o(i.__set_errno) for __set_errno
    sqrt.o(i.sqrt) refers (Special) to iusefp.o(.text) for __I$use$fp
    sqrt.o(i.sqrt) refers to dsqrt.o(.text) for _dsqrt
    sqrt.o(i.sqrt) refers to errno.o(i.__set_errno) for __set_errno
    sqrt_x.o(i.____softfp_sqrt$lsc) refers (Special) to iusefp.o(.text) for __I$use$fp
    sqrt_x.o(i.____softfp_sqrt$lsc) refers to cdcmple.o(.text) for __aeabi_cdcmple
    sqrt_x.o(i.____softfp_sqrt$lsc) refers to errno.o(i.__set_errno) for __set_errno
    sqrt_x.o(i.____softfp_sqrt$lsc) refers to dsqrt.o(.text) for _dsqrt
    sqrt_x.o(i.__sqrt$lsc) refers (Special) to iusefp.o(.text) for __I$use$fp
    sqrt_x.o(i.__sqrt$lsc) refers to cdcmple.o(.text) for __aeabi_cdcmple
    sqrt_x.o(i.__sqrt$lsc) refers to errno.o(i.__set_errno) for __set_errno
    sqrt_x.o(i.__sqrt$lsc) refers to dsqrt.o(.text) for _dsqrt
    tan.o(i.__softfp_tan) refers (Special) to iusefp.o(.text) for __I$use$fp
    tan.o(i.__softfp_tan) refers to errno.o(i.__set_errno) for __set_errno
    tan.o(i.__softfp_tan) refers to dunder.o(i.__mathlib_dbl_invalid) for __mathlib_dbl_invalid
    tan.o(i.__softfp_tan) refers to dunder.o(i.__mathlib_dbl_infnan) for __mathlib_dbl_infnan
    tan.o(i.__softfp_tan) refers to rred.o(i.__ieee754_rem_pio2) for __ieee754_rem_pio2
    tan.o(i.__softfp_tan) refers to tan_i.o(i.__kernel_tan) for __kernel_tan
    tan.o(i.tan) refers (Special) to iusefp.o(.text) for __I$use$fp
    tan.o(i.tan) refers to errno.o(i.__set_errno) for __set_errno
    tan.o(i.tan) refers to dunder.o(i.__mathlib_dbl_invalid) for __mathlib_dbl_invalid
    tan.o(i.tan) refers to dunder.o(i.__mathlib_dbl_infnan) for __mathlib_dbl_infnan
    tan.o(i.tan) refers to rred.o(i.__ieee754_rem_pio2) for __ieee754_rem_pio2
    tan.o(i.tan) refers to tan_i.o(i.__kernel_tan) for __kernel_tan
    tan_x.o(i.____softfp_tan$lsc) refers (Special) to iusefp.o(.text) for __I$use$fp
    tan_x.o(i.____softfp_tan$lsc) refers to errno.o(i.__set_errno) for __set_errno
    tan_x.o(i.____softfp_tan$lsc) refers to dunder.o(i.__mathlib_dbl_infnan) for __mathlib_dbl_infnan
    tan_x.o(i.____softfp_tan$lsc) refers to rred.o(i.__ieee754_rem_pio2) for __ieee754_rem_pio2
    tan_x.o(i.____softfp_tan$lsc) refers to tan_i.o(i.__kernel_tan) for __kernel_tan
    tan_x.o(i.__tan$lsc) refers (Special) to iusefp.o(.text) for __I$use$fp
    tan_x.o(i.__tan$lsc) refers to errno.o(i.__set_errno) for __set_errno
    tan_x.o(i.__tan$lsc) refers to dunder.o(i.__mathlib_dbl_infnan) for __mathlib_dbl_infnan
    tan_x.o(i.__tan$lsc) refers to rred.o(i.__ieee754_rem_pio2) for __ieee754_rem_pio2
    tan_x.o(i.__tan$lsc) refers to tan_i.o(i.__kernel_tan) for __kernel_tan
    entry.o(.ARM.Collect$$$$00000000) refers (Special) to entry10a.o(.ARM.Collect$$$$0000000D) for __rt_final_cpp
    entry.o(.ARM.Collect$$$$00000000) refers (Special) to entry11a.o(.ARM.Collect$$$$0000000F) for __rt_final_exit
    entry.o(.ARM.Collect$$$$00000000) refers (Special) to entry7b.o(.ARM.Collect$$$$00000008) for _main_clock
    entry.o(.ARM.Collect$$$$00000000) refers (Special) to entry8b.o(.ARM.Collect$$$$0000000A) for _main_cpp_init
    entry.o(.ARM.Collect$$$$00000000) refers (Special) to entry9a.o(.ARM.Collect$$$$0000000B) for _main_init
    entry.o(.ARM.Collect$$$$00000000) refers (Special) to entry5.o(.ARM.Collect$$$$00000004) for _main_scatterload
    entry.o(.ARM.Collect$$$$00000000) refers (Special) to entry2.o(.ARM.Collect$$$$00000001) for _main_stk
    strtok.o(.text) refers to strtok.o(.data) for .data
    strtok_r.o(.text) refers to strtok_r.o(.data) for .data
    printfb.o(i.__0fprintf$bare) refers to printfb.o(i._printf_core) for _printf_core
    printfb.o(i.__0fprintf$bare) refers to usart.o(.text) for fputc
    printfb.o(i.__0printf$bare) refers to printfb.o(i._printf_core) for _printf_core
    printfb.o(i.__0printf$bare) refers to usart.o(.text) for fputc
    printfb.o(i.__0printf$bare) refers to stdout.o(.data) for __stdout
    printfb.o(i.__0snprintf$bare) refers to printfb.o(i._printf_core) for _printf_core
    printfb.o(i.__0snprintf$bare) refers to printfb.o(i._snputc) for _snputc
    printfb.o(i.__0sprintf$bare) refers to printfb.o(i._printf_core) for _printf_core
    printfb.o(i.__0sprintf$bare) refers to printfb.o(i._sputc) for _sputc
    printfb.o(i.__0vfprintf$bare) refers to printfb.o(i._printf_core) for _printf_core
    printfb.o(i.__0vfprintf$bare) refers to usart.o(.text) for fputc
    printfb.o(i.__0vprintf$bare) refers to printfb.o(i._printf_core) for _printf_core
    printfb.o(i.__0vprintf$bare) refers to usart.o(.text) for fputc
    printfb.o(i.__0vprintf$bare) refers to stdout.o(.data) for __stdout
    printfb.o(i.__0vsnprintf$bare) refers to printfb.o(i._printf_core) for _printf_core
    printfb.o(i.__0vsnprintf$bare) refers to printfb.o(i._snputc) for _snputc
    printfb.o(i.__0vsprintf$bare) refers to printfb.o(i._printf_core) for _printf_core
    printfb.o(i.__0vsprintf$bare) refers to printfb.o(i._sputc) for _sputc
    printf0.o(i.__0fprintf$0) refers to printf0.o(i._printf_core) for _printf_core
    printf0.o(i.__0fprintf$0) refers to usart.o(.text) for fputc
    printf0.o(i.__0printf$0) refers to printf0.o(i._printf_core) for _printf_core
    printf0.o(i.__0printf$0) refers to usart.o(.text) for fputc
    printf0.o(i.__0printf$0) refers to stdout.o(.data) for __stdout
    printf0.o(i.__0snprintf$0) refers to printf0.o(i._printf_core) for _printf_core
    printf0.o(i.__0snprintf$0) refers to printf0.o(i._snputc) for _snputc
    printf0.o(i.__0sprintf$0) refers to printf0.o(i._printf_core) for _printf_core
    printf0.o(i.__0sprintf$0) refers to printf0.o(i._sputc) for _sputc
    printf0.o(i.__0vfprintf$0) refers to printf0.o(i._printf_core) for _printf_core
    printf0.o(i.__0vfprintf$0) refers to usart.o(.text) for fputc
    printf0.o(i.__0vprintf$0) refers to printf0.o(i._printf_core) for _printf_core
    printf0.o(i.__0vprintf$0) refers to usart.o(.text) for fputc
    printf0.o(i.__0vprintf$0) refers to stdout.o(.data) for __stdout
    printf0.o(i.__0vsnprintf$0) refers to printf0.o(i._printf_core) for _printf_core
    printf0.o(i.__0vsnprintf$0) refers to printf0.o(i._snputc) for _snputc
    printf0.o(i.__0vsprintf$0) refers to printf0.o(i._printf_core) for _printf_core
    printf0.o(i.__0vsprintf$0) refers to printf0.o(i._sputc) for _sputc
    printf1.o(i.__0fprintf$1) refers to printf1.o(i._printf_core) for _printf_core
    printf1.o(i.__0fprintf$1) refers to usart.o(.text) for fputc
    printf1.o(i.__0printf$1) refers to printf1.o(i._printf_core) for _printf_core
    printf1.o(i.__0printf$1) refers to usart.o(.text) for fputc
    printf1.o(i.__0printf$1) refers to stdout.o(.data) for __stdout
    printf1.o(i.__0snprintf$1) refers to printf1.o(i._printf_core) for _printf_core
    printf1.o(i.__0snprintf$1) refers to printf1.o(i._snputc) for _snputc
    printf1.o(i.__0sprintf$1) refers to printf1.o(i._printf_core) for _printf_core
    printf1.o(i.__0sprintf$1) refers to printf1.o(i._sputc) for _sputc
    printf1.o(i.__0vfprintf$1) refers to printf1.o(i._printf_core) for _printf_core
    printf1.o(i.__0vfprintf$1) refers to usart.o(.text) for fputc
    printf1.o(i.__0vprintf$1) refers to printf1.o(i._printf_core) for _printf_core
    printf1.o(i.__0vprintf$1) refers to usart.o(.text) for fputc
    printf1.o(i.__0vprintf$1) refers to stdout.o(.data) for __stdout
    printf1.o(i.__0vsnprintf$1) refers to printf1.o(i._printf_core) for _printf_core
    printf1.o(i.__0vsnprintf$1) refers to printf1.o(i._snputc) for _snputc
    printf1.o(i.__0vsprintf$1) refers to printf1.o(i._printf_core) for _printf_core
    printf1.o(i.__0vsprintf$1) refers to printf1.o(i._sputc) for _sputc
    printf1.o(i._printf_core) refers to uidiv.o(.text) for __aeabi_uidivmod
    printf2.o(i.__0fprintf$2) refers to printf2.o(i._printf_core) for _printf_core
    printf2.o(i.__0fprintf$2) refers to usart.o(.text) for fputc
    printf2.o(i.__0printf$2) refers to printf2.o(i._printf_core) for _printf_core
    printf2.o(i.__0printf$2) refers to usart.o(.text) for fputc
    printf2.o(i.__0printf$2) refers to stdout.o(.data) for __stdout
    printf2.o(i.__0snprintf$2) refers to printf2.o(i._printf_core) for _printf_core
    printf2.o(i.__0snprintf$2) refers to printf2.o(i._snputc) for _snputc
    printf2.o(i.__0sprintf$2) refers to printf2.o(i._printf_core) for _printf_core
    printf2.o(i.__0sprintf$2) refers to printf2.o(i._sputc) for _sputc
    printf2.o(i.__0vfprintf$2) refers to printf2.o(i._printf_core) for _printf_core
    printf2.o(i.__0vfprintf$2) refers to usart.o(.text) for fputc
    printf2.o(i.__0vprintf$2) refers to printf2.o(i._printf_core) for _printf_core
    printf2.o(i.__0vprintf$2) refers to usart.o(.text) for fputc
    printf2.o(i.__0vprintf$2) refers to stdout.o(.data) for __stdout
    printf2.o(i.__0vsnprintf$2) refers to printf2.o(i._printf_core) for _printf_core
    printf2.o(i.__0vsnprintf$2) refers to printf2.o(i._snputc) for _snputc
    printf2.o(i.__0vsprintf$2) refers to printf2.o(i._printf_core) for _printf_core
    printf2.o(i.__0vsprintf$2) refers to printf2.o(i._sputc) for _sputc
    printf3.o(i.__0fprintf$3) refers to printf3.o(i._printf_core) for _printf_core
    printf3.o(i.__0fprintf$3) refers to usart.o(.text) for fputc
    printf3.o(i.__0printf$3) refers to printf3.o(i._printf_core) for _printf_core
    printf3.o(i.__0printf$3) refers to usart.o(.text) for fputc
    printf3.o(i.__0printf$3) refers to stdout.o(.data) for __stdout
    printf3.o(i.__0snprintf$3) refers to printf3.o(i._printf_core) for _printf_core
    printf3.o(i.__0snprintf$3) refers to printf3.o(i._snputc) for _snputc
    printf3.o(i.__0sprintf$3) refers to printf3.o(i._printf_core) for _printf_core
    printf3.o(i.__0sprintf$3) refers to printf3.o(i._sputc) for _sputc
    printf3.o(i.__0vfprintf$3) refers to printf3.o(i._printf_core) for _printf_core
    printf3.o(i.__0vfprintf$3) refers to usart.o(.text) for fputc
    printf3.o(i.__0vprintf$3) refers to printf3.o(i._printf_core) for _printf_core
    printf3.o(i.__0vprintf$3) refers to usart.o(.text) for fputc
    printf3.o(i.__0vprintf$3) refers to stdout.o(.data) for __stdout
    printf3.o(i.__0vsnprintf$3) refers to printf3.o(i._printf_core) for _printf_core
    printf3.o(i.__0vsnprintf$3) refers to printf3.o(i._snputc) for _snputc
    printf3.o(i.__0vsprintf$3) refers to printf3.o(i._printf_core) for _printf_core
    printf3.o(i.__0vsprintf$3) refers to printf3.o(i._sputc) for _sputc
    printf3.o(i._printf_core) refers to uidiv.o(.text) for __aeabi_uidivmod
    printf4.o(i.__0fprintf$4) refers to printf4.o(i._printf_core) for _printf_core
    printf4.o(i.__0fprintf$4) refers to usart.o(.text) for fputc
    printf4.o(i.__0printf$4) refers to printf4.o(i._printf_core) for _printf_core
    printf4.o(i.__0printf$4) refers to usart.o(.text) for fputc
    printf4.o(i.__0printf$4) refers to stdout.o(.data) for __stdout
    printf4.o(i.__0snprintf$4) refers to printf4.o(i._printf_core) for _printf_core
    printf4.o(i.__0snprintf$4) refers to printf4.o(i._snputc) for _snputc
    printf4.o(i.__0sprintf$4) refers to printf4.o(i._printf_core) for _printf_core
    printf4.o(i.__0sprintf$4) refers to printf4.o(i._sputc) for _sputc
    printf4.o(i.__0vfprintf$4) refers to printf4.o(i._printf_core) for _printf_core
    printf4.o(i.__0vfprintf$4) refers to usart.o(.text) for fputc
    printf4.o(i.__0vprintf$4) refers to printf4.o(i._printf_core) for _printf_core
    printf4.o(i.__0vprintf$4) refers to usart.o(.text) for fputc
    printf4.o(i.__0vprintf$4) refers to stdout.o(.data) for __stdout
    printf4.o(i.__0vsnprintf$4) refers to printf4.o(i._printf_core) for _printf_core
    printf4.o(i.__0vsnprintf$4) refers to printf4.o(i._snputc) for _snputc
    printf4.o(i.__0vsprintf$4) refers to printf4.o(i._printf_core) for _printf_core
    printf4.o(i.__0vsprintf$4) refers to printf4.o(i._sputc) for _sputc
    printf4.o(i._printf_core) refers to uldiv.o(.text) for __aeabi_uldivmod
    printf5.o(i.__0fprintf$5) refers to printf5.o(i._printf_core) for _printf_core
    printf5.o(i.__0fprintf$5) refers to usart.o(.text) for fputc
    printf5.o(i.__0printf$5) refers to printf5.o(i._printf_core) for _printf_core
    printf5.o(i.__0printf$5) refers to usart.o(.text) for fputc
    printf5.o(i.__0printf$5) refers to stdout.o(.data) for __stdout
    printf5.o(i.__0snprintf$5) refers to printf5.o(i._printf_core) for _printf_core
    printf5.o(i.__0snprintf$5) refers to printf5.o(i._snputc) for _snputc
    printf5.o(i.__0sprintf$5) refers to printf5.o(i._printf_core) for _printf_core
    printf5.o(i.__0sprintf$5) refers to printf5.o(i._sputc) for _sputc
    printf5.o(i.__0vfprintf$5) refers to printf5.o(i._printf_core) for _printf_core
    printf5.o(i.__0vfprintf$5) refers to usart.o(.text) for fputc
    printf5.o(i.__0vprintf$5) refers to printf5.o(i._printf_core) for _printf_core
    printf5.o(i.__0vprintf$5) refers to usart.o(.text) for fputc
    printf5.o(i.__0vprintf$5) refers to stdout.o(.data) for __stdout
    printf5.o(i.__0vsnprintf$5) refers to printf5.o(i._printf_core) for _printf_core
    printf5.o(i.__0vsnprintf$5) refers to printf5.o(i._snputc) for _snputc
    printf5.o(i.__0vsprintf$5) refers to printf5.o(i._printf_core) for _printf_core
    printf5.o(i.__0vsprintf$5) refers to printf5.o(i._sputc) for _sputc
    printf5.o(i._printf_core) refers to uldiv.o(.text) for __aeabi_uldivmod
    printf6.o(i.__0fprintf$6) refers to printf6.o(i._printf_core) for _printf_core
    printf6.o(i.__0fprintf$6) refers to usart.o(.text) for fputc
    printf6.o(i.__0printf$6) refers to printf6.o(i._printf_core) for _printf_core
    printf6.o(i.__0printf$6) refers to usart.o(.text) for fputc
    printf6.o(i.__0printf$6) refers to stdout.o(.data) for __stdout
    printf6.o(i.__0snprintf$6) refers to printf6.o(i._printf_core) for _printf_core
    printf6.o(i.__0snprintf$6) refers to printf6.o(i._snputc) for _snputc
    printf6.o(i.__0sprintf$6) refers to printf6.o(i._printf_core) for _printf_core
    printf6.o(i.__0sprintf$6) refers to printf6.o(i._sputc) for _sputc
    printf6.o(i.__0vfprintf$6) refers to printf6.o(i._printf_core) for _printf_core
    printf6.o(i.__0vfprintf$6) refers to usart.o(.text) for fputc
    printf6.o(i.__0vprintf$6) refers to printf6.o(i._printf_core) for _printf_core
    printf6.o(i.__0vprintf$6) refers to usart.o(.text) for fputc
    printf6.o(i.__0vprintf$6) refers to stdout.o(.data) for __stdout
    printf6.o(i.__0vsnprintf$6) refers to printf6.o(i._printf_core) for _printf_core
    printf6.o(i.__0vsnprintf$6) refers to printf6.o(i._snputc) for _snputc
    printf6.o(i.__0vsprintf$6) refers to printf6.o(i._printf_core) for _printf_core
    printf6.o(i.__0vsprintf$6) refers to printf6.o(i._sputc) for _sputc
    printf6.o(i._printf_core) refers to printf6.o(i._printf_pre_padding) for _printf_pre_padding
    printf6.o(i._printf_core) refers to uidiv.o(.text) for __aeabi_uidivmod
    printf6.o(i._printf_core) refers to printf6.o(i._printf_post_padding) for _printf_post_padding
    printf7.o(i.__0fprintf$7) refers to printf7.o(i._printf_core) for _printf_core
    printf7.o(i.__0fprintf$7) refers to usart.o(.text) for fputc
    printf7.o(i.__0printf$7) refers to printf7.o(i._printf_core) for _printf_core
    printf7.o(i.__0printf$7) refers to usart.o(.text) for fputc
    printf7.o(i.__0printf$7) refers to stdout.o(.data) for __stdout
    printf7.o(i.__0snprintf$7) refers to printf7.o(i._printf_core) for _printf_core
    printf7.o(i.__0snprintf$7) refers to printf7.o(i._snputc) for _snputc
    printf7.o(i.__0sprintf$7) refers to printf7.o(i._printf_core) for _printf_core
    printf7.o(i.__0sprintf$7) refers to printf7.o(i._sputc) for _sputc
    printf7.o(i.__0vfprintf$7) refers to printf7.o(i._printf_core) for _printf_core
    printf7.o(i.__0vfprintf$7) refers to usart.o(.text) for fputc
    printf7.o(i.__0vprintf$7) refers to printf7.o(i._printf_core) for _printf_core
    printf7.o(i.__0vprintf$7) refers to usart.o(.text) for fputc
    printf7.o(i.__0vprintf$7) refers to stdout.o(.data) for __stdout
    printf7.o(i.__0vsnprintf$7) refers to printf7.o(i._printf_core) for _printf_core
    printf7.o(i.__0vsnprintf$7) refers to printf7.o(i._snputc) for _snputc
    printf7.o(i.__0vsprintf$7) refers to printf7.o(i._printf_core) for _printf_core
    printf7.o(i.__0vsprintf$7) refers to printf7.o(i._sputc) for _sputc
    printf7.o(i._printf_core) refers to printf7.o(i._printf_pre_padding) for _printf_pre_padding
    printf7.o(i._printf_core) refers to uldiv.o(.text) for __aeabi_uldivmod
    printf7.o(i._printf_core) refers to printf7.o(i._printf_post_padding) for _printf_post_padding
    printf8.o(i.__0fprintf$8) refers to printf8.o(i._printf_core) for _printf_core
    printf8.o(i.__0fprintf$8) refers to usart.o(.text) for fputc
    printf8.o(i.__0printf$8) refers to printf8.o(i._printf_core) for _printf_core
    printf8.o(i.__0printf$8) refers to usart.o(.text) for fputc
    printf8.o(i.__0printf$8) refers to stdout.o(.data) for __stdout
    printf8.o(i.__0snprintf$8) refers to printf8.o(i._printf_core) for _printf_core
    printf8.o(i.__0snprintf$8) refers to printf8.o(i._snputc) for _snputc
    printf8.o(i.__0sprintf$8) refers to printf8.o(i._printf_core) for _printf_core
    printf8.o(i.__0sprintf$8) refers to printf8.o(i._sputc) for _sputc
    printf8.o(i.__0vfprintf$8) refers to printf8.o(i._printf_core) for _printf_core
    printf8.o(i.__0vfprintf$8) refers to usart.o(.text) for fputc
    printf8.o(i.__0vprintf$8) refers to printf8.o(i._printf_core) for _printf_core
    printf8.o(i.__0vprintf$8) refers to usart.o(.text) for fputc
    printf8.o(i.__0vprintf$8) refers to stdout.o(.data) for __stdout
    printf8.o(i.__0vsnprintf$8) refers to printf8.o(i._printf_core) for _printf_core
    printf8.o(i.__0vsnprintf$8) refers to printf8.o(i._snputc) for _snputc
    printf8.o(i.__0vsprintf$8) refers to printf8.o(i._printf_core) for _printf_core
    printf8.o(i.__0vsprintf$8) refers to printf8.o(i._sputc) for _sputc
    printf8.o(i._printf_core) refers to printf8.o(i._printf_pre_padding) for _printf_pre_padding
    printf8.o(i._printf_core) refers to uldiv.o(.text) for __aeabi_uldivmod
    printf8.o(i._printf_core) refers to printf8.o(i._printf_post_padding) for _printf_post_padding
    printfa.o(i.__0fprintf) refers (Special) to iusefp.o(.text) for __I$use$fp
    printfa.o(i.__0fprintf) refers to printfa.o(i._printf_core) for _printf_core
    printfa.o(i.__0fprintf) refers to usart.o(.text) for fputc
    printfa.o(i.__0printf) refers (Special) to iusefp.o(.text) for __I$use$fp
    printfa.o(i.__0printf) refers to printfa.o(i._printf_core) for _printf_core
    printfa.o(i.__0printf) refers to usart.o(.text) for fputc
    printfa.o(i.__0printf) refers to stdout.o(.data) for __stdout
    printfa.o(i.__0snprintf) refers (Special) to iusefp.o(.text) for __I$use$fp
    printfa.o(i.__0snprintf) refers to printfa.o(i._printf_core) for _printf_core
    printfa.o(i.__0snprintf) refers to printfa.o(i._snputc) for _snputc
    printfa.o(i.__0sprintf) refers (Special) to iusefp.o(.text) for __I$use$fp
    printfa.o(i.__0sprintf) refers to printfa.o(i._printf_core) for _printf_core
    printfa.o(i.__0sprintf) refers to printfa.o(i._sputc) for _sputc
    printfa.o(i.__0vfprintf) refers (Special) to iusefp.o(.text) for __I$use$fp
    printfa.o(i.__0vfprintf) refers to printfa.o(i._printf_core) for _printf_core
    printfa.o(i.__0vfprintf) refers to usart.o(.text) for fputc
    printfa.o(i.__0vprintf) refers (Special) to iusefp.o(.text) for __I$use$fp
    printfa.o(i.__0vprintf) refers to printfa.o(i._printf_core) for _printf_core
    printfa.o(i.__0vprintf) refers to usart.o(.text) for fputc
    printfa.o(i.__0vprintf) refers to stdout.o(.data) for __stdout
    printfa.o(i.__0vsnprintf) refers (Special) to iusefp.o(.text) for __I$use$fp
    printfa.o(i.__0vsnprintf) refers to printfa.o(i._printf_core) for _printf_core
    printfa.o(i.__0vsnprintf) refers to printfa.o(i._snputc) for _snputc
    printfa.o(i.__0vsprintf) refers (Special) to iusefp.o(.text) for __I$use$fp
    printfa.o(i.__0vsprintf) refers to printfa.o(i._printf_core) for _printf_core
    printfa.o(i.__0vsprintf) refers to printfa.o(i._sputc) for _sputc
    printfa.o(i._fp_digits) refers (Special) to iusefp.o(.text) for __I$use$fp
    printfa.o(i._fp_digits) refers to dmul.o(.text) for __aeabi_dmul
    printfa.o(i._fp_digits) refers to ddiv.o(.text) for __aeabi_ddiv
    printfa.o(i._fp_digits) refers to cdrcmple.o(.text) for __aeabi_cdrcmple
    printfa.o(i._fp_digits) refers to dadd.o(.text) for __aeabi_dadd
    printfa.o(i._fp_digits) refers to dfixul.o(.text) for __aeabi_d2ulz
    printfa.o(i._fp_digits) refers to uldiv.o(.text) for __aeabi_uldivmod
    printfa.o(i._printf_core) refers (Special) to iusefp.o(.text) for __I$use$fp
    printfa.o(i._printf_core) refers to printfa.o(i._printf_pre_padding) for _printf_pre_padding
    printfa.o(i._printf_core) refers to uldiv.o(.text) for __aeabi_uldivmod
    printfa.o(i._printf_core) refers to printfa.o(i._printf_post_padding) for _printf_post_padding
    printfa.o(i._printf_core) refers to printfa.o(i._fp_digits) for _fp_digits
    printfa.o(i._printf_core) refers to uidiv.o(.text) for __aeabi_uidivmod
    printfa.o(i._printf_post_padding) refers (Special) to iusefp.o(.text) for __I$use$fp
    printfa.o(i._printf_pre_padding) refers (Special) to iusefp.o(.text) for __I$use$fp
    printfa.o(i._snputc) refers (Special) to iusefp.o(.text) for __I$use$fp
    printfa.o(i._sputc) refers (Special) to iusefp.o(.text) for __I$use$fp
    malloc.o(i.free) refers to mvars.o(.data) for __microlib_freelist
    malloc.o(i.malloc) refers to mvars.o(.data) for __microlib_freelist_initialised
    malloc.o(i.malloc) refers to mvars.o(.data) for __microlib_freelist
    malloc.o(i.malloc) refers to startup_stm32f2xx.o(HEAP) for __heap_base
    mallocr.o(i.__free$realloc) refers to mvars.o(.data) for __microlib_freelist
    mallocr.o(i.__malloc$realloc) refers to mallocr.o(i.internal_alloc) for internal_alloc
    mallocr.o(i.__malloc$realloc) refers to mvars.o(.data) for __microlib_freelist_initialised
    mallocr.o(i.__malloc$realloc) refers to startup_stm32f2xx.o(HEAP) for __heap_base
    mallocr.o(i.__malloc$realloc) refers to mvars.o(.data) for __microlib_freelist
    mallocr.o(i.internal_alloc) refers to memcpya.o(.text) for __aeabi_memcpy
    mallocr.o(i.internal_alloc) refers to mvars.o(.data) for __microlib_freelist
    mallocr.o(i.realloc) refers to mallocr.o(i.__free$realloc) for __free$realloc
    mallocr.o(i.realloc) refers to mallocr.o(i.internal_alloc) for internal_alloc
    mallocr.o(i.realloc) refers to mallocr.o(i.__malloc$realloc) for __malloc$realloc
    mallocr.o(i.realloc) refers to mvars.o(.data) for __microlib_freelist
    malloca.o(i.__aligned_malloc) refers to mvars.o(.data) for __microlib_freelist_initialised
    malloca.o(i.__aligned_malloc) refers to mvars.o(.data) for __microlib_freelist
    malloca.o(i.__aligned_malloc) refers to startup_stm32f2xx.o(HEAP) for __heap_base
    malloca.o(i.__free$memalign) refers to mvars.o(.data) for __microlib_freelist
    malloca.o(i.__malloc$memalign) refers to malloca.o(i.__aligned_malloc) for __aligned_malloc
    mallocra.o(i.__aligned_malloc$realloc) refers to mallocra.o(i.internal_alloc) for internal_alloc
    mallocra.o(i.__aligned_malloc$realloc) refers to mvars.o(.data) for __microlib_freelist_initialised
    mallocra.o(i.__aligned_malloc$realloc) refers to startup_stm32f2xx.o(HEAP) for __heap_base
    mallocra.o(i.__aligned_malloc$realloc) refers to mvars.o(.data) for __microlib_freelist
    mallocra.o(i.__free$realloc$memalign) refers to mvars.o(.data) for __microlib_freelist
    mallocra.o(i.__malloc$realloc$memalign) refers to mallocra.o(i.__aligned_malloc$realloc) for __aligned_malloc$realloc
    mallocra.o(i.__realloc$memalign) refers to mallocra.o(i.__free$realloc$memalign) for __free$realloc$memalign
    mallocra.o(i.__realloc$memalign) refers to mallocra.o(i.internal_alloc) for internal_alloc
    mallocra.o(i.__realloc$memalign) refers to mallocra.o(i.__malloc$realloc$memalign) for __malloc$realloc$memalign
    mallocra.o(i.__realloc$memalign) refers to mvars.o(.data) for __microlib_freelist
    mallocra.o(i.internal_alloc) refers to memcpya.o(.text) for __aeabi_memcpy
    mallocra.o(i.internal_alloc) refers to mvars.o(.data) for __microlib_freelist
    atoi.o(.text) refers to errno.o(i.__aeabi_errno_addr) for __aeabi_errno_addr
    atoi.o(.text) refers to strtol.o(.text) for strtol
    fadd.o(.text) refers (Special) to iusefp.o(.text) for __I$use$fp
    fadd.o(.text) refers to fepilogue.o(.text) for _float_epilogue
    fmul.o(.text) refers (Special) to iusefp.o(.text) for __I$use$fp
    fdiv.o(.text) refers (Special) to iusefp.o(.text) for __I$use$fp
    fdiv.o(.text) refers to fepilogue.o(.text) for _float_round
    dadd.o(.text) refers (Special) to iusefp.o(.text) for __I$use$fp
    dadd.o(.text) refers to llshl.o(.text) for __aeabi_llsl
    dadd.o(.text) refers to llsshr.o(.text) for __aeabi_lasr
    dadd.o(.text) refers to depilogue.o(.text) for _double_epilogue
    dmul.o(.text) refers (Special) to iusefp.o(.text) for __I$use$fp
    dmul.o(.text) refers to depilogue.o(.text) for _double_epilogue
    ddiv.o(.text) refers (Special) to iusefp.o(.text) for __I$use$fp
    ddiv.o(.text) refers to depilogue.o(.text) for _double_round
    ffltui.o(.text) refers (Special) to iusefp.o(.text) for __I$use$fp
    ffltui.o(.text) refers to fepilogue.o(.text) for _float_epilogue
    dflti.o(.text) refers (Special) to iusefp.o(.text) for __I$use$fp
    dflti.o(.text) refers to depilogue.o(.text) for _double_epilogue
    dfltui.o(.text) refers (Special) to iusefp.o(.text) for __I$use$fp
    dfltui.o(.text) refers to depilogue.o(.text) for _double_epilogue
    ffixui.o(.text) refers (Special) to iusefp.o(.text) for __I$use$fp
    dfixi.o(.text) refers (Special) to iusefp.o(.text) for __I$use$fp
    dfixi.o(.text) refers to llushr.o(.text) for __aeabi_llsr
    dfixui.o(.text) refers (Special) to iusefp.o(.text) for __I$use$fp
    dfixui.o(.text) refers to llushr.o(.text) for __aeabi_llsr
    f2d.o(.text) refers (Special) to iusefp.o(.text) for __I$use$fp
    cdcmple.o(.text) refers (Special) to iusefp.o(.text) for __I$use$fp
    cdrcmple.o(.text) refers (Special) to iusefp.o(.text) for __I$use$fp
    d2f.o(.text) refers (Special) to iusefp.o(.text) for __I$use$fp
    d2f.o(.text) refers to fepilogue.o(.text) for _float_round
    cfcmple.o(.text) refers (Special) to iusefp.o(.text) for __I$use$fp
    cfrcmple.o(.text) refers (Special) to iusefp.o(.text) for __I$use$fp
    cos_i.o(i.__kernel_cos) refers (Special) to iusefp.o(.text) for __I$use$fp
    cos_i.o(i.__kernel_cos) refers to dfixi.o(.text) for __aeabi_d2iz
    cos_i.o(i.__kernel_cos) refers to dmul.o(.text) for __aeabi_dmul
    cos_i.o(i.__kernel_cos) refers to poly.o(i.__kernel_poly) for __kernel_poly
    cos_i.o(i.__kernel_cos) refers to dadd.o(.text) for __aeabi_dsub
    cos_i.o(i.__kernel_cos) refers to dscalb.o(.text) for __ARM_scalbn
    cos_i.o(i.__kernel_cos) refers to cos_i.o(.constdata) for .constdata
    cos_i.o(.constdata) refers (Special) to iusefp.o(.text) for __I$use$fp
    dunder.o(i.__mathlib_dbl_divzero) refers to ddiv.o(.text) for __aeabi_ddiv
    dunder.o(i.__mathlib_dbl_infnan) refers to dscalb.o(.text) for __ARM_scalbn
    dunder.o(i.__mathlib_dbl_infnan2) refers to dadd.o(.text) for __aeabi_dadd
    dunder.o(i.__mathlib_dbl_invalid) refers to ddiv.o(.text) for __aeabi_ddiv
    dunder.o(i.__mathlib_dbl_overflow) refers to dscalb.o(.text) for __ARM_scalbn
    dunder.o(i.__mathlib_dbl_posinfnan) refers to dmul.o(.text) for __aeabi_dmul
    dunder.o(i.__mathlib_dbl_underflow) refers to dscalb.o(.text) for __ARM_scalbn
    fpclassify.o(i.__ARM_fpclassify) refers (Special) to iusefp.o(.text) for __I$use$fp
    log.o(i.__softfp_log) refers (Special) to iusefp.o(.text) for __I$use$fp
    log.o(i.__softfp_log) refers to log.o(i.log) for log
    log.o(i.log) refers (Special) to iusefp.o(.text) for __I$use$fp
    log.o(i.log) refers to dunder.o(i.__mathlib_dbl_infnan) for __mathlib_dbl_infnan
    log.o(i.log) refers to errno.o(i.__set_errno) for __set_errno
    log.o(i.log) refers to dunder.o(i.__mathlib_dbl_invalid) for __mathlib_dbl_invalid
    log.o(i.log) refers to dunder.o(i.__mathlib_dbl_divzero) for __mathlib_dbl_divzero
    log.o(i.log) refers to dscalb.o(.text) for __ARM_scalbn
    log.o(i.log) refers to dadd.o(.text) for __aeabi_dsub
    log.o(i.log) refers to cdcmple.o(.text) for __aeabi_cdcmpeq
    log.o(i.log) refers to dflti.o(.text) for __aeabi_i2d
    log.o(i.log) refers to dmul.o(.text) for __aeabi_dmul
    log.o(i.log) refers to ddiv.o(.text) for __aeabi_ddiv
    log.o(i.log) refers to poly.o(i.__kernel_poly) for __kernel_poly
    log.o(i.log) refers to qnan.o(.constdata) for __mathlib_zero
    log.o(i.log) refers to log.o(.constdata) for .constdata
    log.o(.constdata) refers (Special) to iusefp.o(.text) for __I$use$fp
    log_x.o(i.____softfp_log$lsc) refers (Special) to iusefp.o(.text) for __I$use$fp
    log_x.o(i.____softfp_log$lsc) refers to log_x.o(i.__log$lsc) for __log$lsc
    log_x.o(i.__log$lsc) refers (Special) to iusefp.o(.text) for __I$use$fp
    log_x.o(i.__log$lsc) refers to dunder.o(i.__mathlib_dbl_infnan) for __mathlib_dbl_infnan
    log_x.o(i.__log$lsc) refers to errno.o(i.__set_errno) for __set_errno
    log_x.o(i.__log$lsc) refers to dscalb.o(.text) for __ARM_scalbn
    log_x.o(i.__log$lsc) refers to dadd.o(.text) for __aeabi_dsub
    log_x.o(i.__log$lsc) refers to cdcmple.o(.text) for __aeabi_cdcmpeq
    log_x.o(i.__log$lsc) refers to dflti.o(.text) for __aeabi_i2d
    log_x.o(i.__log$lsc) refers to dmul.o(.text) for __aeabi_dmul
    log_x.o(i.__log$lsc) refers to ddiv.o(.text) for __aeabi_ddiv
    log_x.o(i.__log$lsc) refers to poly.o(i.__kernel_poly) for __kernel_poly
    log_x.o(i.__log$lsc) refers to qnan.o(.constdata) for __mathlib_zero
    log_x.o(i.__log$lsc) refers to log_x.o(.constdata) for .constdata
    log_x.o(.constdata) refers (Special) to iusefp.o(.text) for __I$use$fp
    poly.o(i.__kernel_poly) refers (Special) to iusefp.o(.text) for __I$use$fp
    poly.o(i.__kernel_poly) refers to dmul.o(.text) for __aeabi_dmul
    poly.o(i.__kernel_poly) refers to dadd.o(.text) for __aeabi_dadd
    qnan.o(.constdata) refers (Special) to iusefp.o(.text) for __I$use$fp
    rred.o(i.__ieee754_rem_pio2) refers (Special) to iusefp.o(.text) for __I$use$fp
    rred.o(i.__ieee754_rem_pio2) refers to dadd.o(.text) for __aeabi_dsub
    rred.o(i.__ieee754_rem_pio2) refers to dmul.o(.text) for __aeabi_dmul
    rred.o(i.__ieee754_rem_pio2) refers to dfixi.o(.text) for __aeabi_d2iz
    rred.o(i.__ieee754_rem_pio2) refers to dflti.o(.text) for __aeabi_i2d
    rred.o(i.__ieee754_rem_pio2) refers to dfltui.o(.text) for __aeabi_ui2d
    rred.o(i.__ieee754_rem_pio2) refers to dscalb.o(.text) for __ARM_scalbn
    rred.o(i.__ieee754_rem_pio2) refers to rred.o(.constdata) for .constdata
    rred.o(i.__use_accurate_range_reduction) refers (Special) to iusefp.o(.text) for __I$use$fp
    rred.o(.constdata) refers (Special) to iusefp.o(.text) for __I$use$fp
    sin_i.o(i.__kernel_sin) refers (Special) to iusefp.o(.text) for __I$use$fp
    sin_i.o(i.__kernel_sin) refers to fpclassify.o(i.__ARM_fpclassify) for __ARM_fpclassify
    sin_i.o(i.__kernel_sin) refers to dunder.o(i.__mathlib_dbl_underflow) for __mathlib_dbl_underflow
    sin_i.o(i.__kernel_sin) refers to dmul.o(.text) for __aeabi_dmul
    sin_i.o(i.__kernel_sin) refers to poly.o(i.__kernel_poly) for __kernel_poly
    sin_i.o(i.__kernel_sin) refers to dscalb.o(.text) for __ARM_scalbn
    sin_i.o(i.__kernel_sin) refers to dadd.o(.text) for __aeabi_dsub
    sin_i.o(i.__kernel_sin) refers to sin_i.o(.constdata) for .constdata
    sin_i.o(.constdata) refers (Special) to iusefp.o(.text) for __I$use$fp
    sin_i_x.o(i.____kernel_sin$lsc) refers (Special) to iusefp.o(.text) for __I$use$fp
    sin_i_x.o(i.____kernel_sin$lsc) refers to dmul.o(.text) for __aeabi_dmul
    sin_i_x.o(i.____kernel_sin$lsc) refers to poly.o(i.__kernel_poly) for __kernel_poly
    sin_i_x.o(i.____kernel_sin$lsc) refers to dscalb.o(.text) for __ARM_scalbn
    sin_i_x.o(i.____kernel_sin$lsc) refers to dadd.o(.text) for __aeabi_dsub
    sin_i_x.o(i.____kernel_sin$lsc) refers to sin_i_x.o(.constdata) for .constdata
    sin_i_x.o(.constdata) refers (Special) to iusefp.o(.text) for __I$use$fp
    tan_i.o(i.__kernel_tan) refers (Special) to iusefp.o(.text) for __I$use$fp
    tan_i.o(i.__kernel_tan) refers to dfixi.o(.text) for __aeabi_d2iz
    tan_i.o(i.__kernel_tan) refers to dadd.o(.text) for __aeabi_drsub
    tan_i.o(i.__kernel_tan) refers to dmul.o(.text) for __aeabi_dmul
    tan_i.o(i.__kernel_tan) refers to poly.o(i.__kernel_poly) for __kernel_poly
    tan_i.o(i.__kernel_tan) refers to dflti.o(.text) for __aeabi_i2d
    tan_i.o(i.__kernel_tan) refers to ddiv.o(.text) for __aeabi_ddiv
    tan_i.o(i.__kernel_tan) refers to dscalb.o(.text) for __ARM_scalbn
    tan_i.o(i.__kernel_tan) refers to fpclassify.o(i.__ARM_fpclassify) for __ARM_fpclassify
    tan_i.o(i.__kernel_tan) refers to dunder.o(i.__mathlib_dbl_underflow) for __mathlib_dbl_underflow
    tan_i.o(i.__kernel_tan) refers to tan_i.o(.constdata) for .constdata
    tan_i.o(.constdata) refers (Special) to iusefp.o(.text) for __I$use$fp
    tan_i_x.o(i.____kernel_tan$lsc) refers (Special) to iusefp.o(.text) for __I$use$fp
    tan_i_x.o(i.____kernel_tan$lsc) refers to dfixi.o(.text) for __aeabi_d2iz
    tan_i_x.o(i.____kernel_tan$lsc) refers to dadd.o(.text) for __aeabi_drsub
    tan_i_x.o(i.____kernel_tan$lsc) refers to dmul.o(.text) for __aeabi_dmul
    tan_i_x.o(i.____kernel_tan$lsc) refers to poly.o(i.__kernel_poly) for __kernel_poly
    tan_i_x.o(i.____kernel_tan$lsc) refers to dflti.o(.text) for __aeabi_i2d
    tan_i_x.o(i.____kernel_tan$lsc) refers to ddiv.o(.text) for __aeabi_ddiv
    tan_i_x.o(i.____kernel_tan$lsc) refers to dscalb.o(.text) for __ARM_scalbn
    tan_i_x.o(i.____kernel_tan$lsc) refers to tan_i_x.o(.constdata) for .constdata
    tan_i_x.o(.constdata) refers (Special) to iusefp.o(.text) for __I$use$fp
    entry2.o(.ARM.Collect$$$$00000001) refers to entry2.o(.ARM.Collect$$$$00002712) for __lit__00000000
    entry2.o(.ARM.Collect$$$$00002712) refers to startup_stm32f2xx.o(STACK) for __initial_sp
    entry2.o(__vectab_stack_and_reset_area) refers to startup_stm32f2xx.o(STACK) for __initial_sp
    entry2.o(__vectab_stack_and_reset_area) refers to entry.o(.ARM.Collect$$$$00000000) for __main
    entry5.o(.ARM.Collect$$$$00000004) refers to init.o(.text) for __scatterload
    entry9a.o(.ARM.Collect$$$$0000000B) refers to main.o(.text) for main
    entry9b.o(.ARM.Collect$$$$0000000C) refers to main.o(.text) for main
    uldiv.o(.text) refers to llushr.o(.text) for __aeabi_llsr
    uldiv.o(.text) refers to llshl.o(.text) for __aeabi_llsl
    errno.o(i.__aeabi_errno_addr) refers to errno.o(.data) for .data
    errno.o(i.__read_errno) refers to errno.o(.data) for .data
    errno.o(i.__set_errno) refers to errno.o(.data) for .data
    strtod.o(.text) refers to scanf_fp.o(.text) for _scanf_real
    strtod.o(.text) refers to _sgetc.o(.text) for _sgetc
    strtod.o(.text) refers to isspace_o.o(.text) for isspace
    strtol.o(.text) refers to ctype_o.o(.text) for __rt_ctype_table
    strtol.o(.text) refers to _strtoul.o(.text) for _strtoul
    strtol.o(.text) refers to errno.o(i.__aeabi_errno_addr) for __aeabi_errno_addr
    depilogue.o(.text) refers to llshl.o(.text) for __aeabi_llsl
    depilogue.o(.text) refers to llushr.o(.text) for __aeabi_llsr
    dsqrt.o(.text) refers to llushr.o(.text) for __aeabi_llsr
    dsqrt.o(.text) refers to depilogue.o(.text) for _double_round
    dfixul.o(.text) refers to llushr.o(.text) for __aeabi_llsr
    dfixul.o(.text) refers to llshl.o(.text) for __aeabi_llsl
    init.o(.text) refers to entry5.o(.ARM.Collect$$$$00000004) for __main_after_scatterload
    isspace_c.o(.text) refers to ctype_c.o(.text) for __ctype_lookup
    ctype_o.o(.text) refers to ctype_o.o(.constdata) for .constdata
    ctype_o.o(.constdata) refers to ctype_o.o(.constdata) for __ctype_table
    isalnum_o.o(.text) refers to ctype_o.o(.text) for __rt_ctype_table
    isalpha_o.o(.text) refers to ctype_o.o(.text) for __rt_ctype_table
    isblank_o.o(.text) refers to ctype_o.o(.constdata) for __ctype_table
    iscntrl_o.o(.text) refers to ctype_o.o(.text) for __rt_ctype_table
    isdigit_o.o(.text) refers to ctype_o.o(.text) for __rt_ctype_table
    isgraph_o.o(.text) refers to ctype_o.o(.text) for __rt_ctype_table
    islower_o.o(.text) refers to ctype_o.o(.text) for __rt_ctype_table
    isprint_o.o(.text) refers to ctype_o.o(.text) for __rt_ctype_table
    ispunct_o.o(.text) refers to ctype_o.o(.text) for __rt_ctype_table
    isspace_o.o(.text) refers to ctype_o.o(.text) for __rt_ctype_table
    isupper_o.o(.text) refers to ctype_o.o(.text) for __rt_ctype_table
    isxdigit_o.o(.text) refers to ctype_o.o(.text) for __rt_ctype_table
    scanf_fp.o(.text) refers (Special) to iusefp.o(.text) for __I$use$fp
    scanf_fp.o(.text) refers to dfltul.o(.text) for __aeabi_ul2d
    scanf_fp.o(.text) refers to dmul.o(.text) for __aeabi_dmul
    scanf_fp.o(.text) refers to ddiv.o(.text) for __aeabi_ddiv
    scanf_fp.o(.text) refers to scanf_fp.o(i._is_digit) for _is_digit
    scanf_fp.o(.text) refers to d2f.o(.text) for __aeabi_d2f
    _strtoul.o(.text) refers to _chval.o(.text) for _chval
    _strtoul.o(.text) refers to errno.o(i.__aeabi_errno_addr) for __aeabi_errno_addr
    ctype_c.o(.text) refers to ctype_c.o(.constdata) for .constdata
    dfltul.o(.text) refers to depilogue.o(.text) for _double_epilogue
    i2c.o(i.I2C_Delay) refers to systick.o(.text) for Delay_us
    power.o(i.POWER_VCI_Set) refers to stm32f2xx_gpio.o(.text) for GPIO_SetBits
    power.o(i.POWER_VCI_Reset) refers to stm32f2xx_gpio.o(.text) for GPIO_ResetBits
    power.o(i.POWER_IOVCC_Set) refers to stm32f2xx_gpio.o(.text) for GPIO_SetBits
    power.o(i.POWER_IOVCC_Reset) refers to stm32f2xx_gpio.o(.text) for GPIO_ResetBits
    power.o(i.POWER_VSN_Set) refers to stm32f2xx_gpio.o(.text) for GPIO_SetBits
    power.o(i.POWER_VSN_Reset) refers to stm32f2xx_gpio.o(.text) for GPIO_ResetBits
    power.o(i.POWER_VSP_Set) refers to stm32f2xx_gpio.o(.text) for GPIO_SetBits
    power.o(i.POWER_VSP_Reset) refers to stm32f2xx_gpio.o(.text) for GPIO_ResetBits
    scanf_fp.o(i._is_digit) refers (Special) to iusefp.o(.text) for __I$use$fp


==============================================================================

Removing Unused input sections from the image.

    Removing stm32f2xx_flash.o(.text), (1212 bytes).
    Removing core_cm3.o(.emb_text), (32 bytes).
    Removing admesy_filter.o(.text), (916 bytes).
    Removing test_et2.o(.data), (1 bytes).
    Removing common_initialcode_6.5inch_cof_nt36682a_cmos_v4p0_20180704.o(.bss), (1280 bytes).

5 unused section(s) (total 3441 bytes) removed from the image.

==============================================================================

Image Symbol Table

    Local Symbols

    Symbol Name                              Value     Ov Type        Size  Object(Section)

    ../clib/../cmprslib/lz77c.c              0x00000000   Number         0  __dclz77c.o ABSOLUTE
    ../clib/microlib/ctype/ctype.c           0x00000000   Number         0  isspace_c.o ABSOLUTE
    ../clib/microlib/ctype/ctype.c           0x00000000   Number         0  isdigit_o.o ABSOLUTE
    ../clib/microlib/ctype/ctype.c           0x00000000   Number         0  iscntrl_o.o ABSOLUTE
    ../clib/microlib/ctype/ctype.c           0x00000000   Number         0  ctype_o.o ABSOLUTE
    ../clib/microlib/ctype/ctype.c           0x00000000   Number         0  isalnum_o.o ABSOLUTE
    ../clib/microlib/ctype/ctype.c           0x00000000   Number         0  isblank_o.o ABSOLUTE
    ../clib/microlib/ctype/ctype.c           0x00000000   Number         0  isxdigit_o.o ABSOLUTE
    ../clib/microlib/ctype/ctype.c           0x00000000   Number         0  isupper_o.o ABSOLUTE
    ../clib/microlib/ctype/ctype.c           0x00000000   Number         0  isspace_o.o ABSOLUTE
    ../clib/microlib/ctype/ctype.c           0x00000000   Number         0  ctype_c.o ABSOLUTE
    ../clib/microlib/ctype/ctype.c           0x00000000   Number         0  ispunct_o.o ABSOLUTE
    ../clib/microlib/ctype/ctype.c           0x00000000   Number         0  isprint_o.o ABSOLUTE
    ../clib/microlib/ctype/ctype.c           0x00000000   Number         0  islower_o.o ABSOLUTE
    ../clib/microlib/ctype/ctype.c           0x00000000   Number         0  isgraph_o.o ABSOLUTE
    ../clib/microlib/ctype/ctype.c           0x00000000   Number         0  isalpha_o.o ABSOLUTE
    ../clib/microlib/division.c              0x00000000   Number         0  uldiv.o ABSOLUTE
    ../clib/microlib/division.c              0x00000000   Number         0  uidiv.o ABSOLUTE
    ../clib/microlib/errno.c                 0x00000000   Number         0  errno.o ABSOLUTE
    ../clib/microlib/init/entry.s            0x00000000   Number         0  entry11b.o ABSOLUTE
    ../clib/microlib/init/entry.s            0x00000000   Number         0  entry2.o ABSOLUTE
    ../clib/microlib/init/entry.s            0x00000000   Number         0  entry9a.o ABSOLUTE
    ../clib/microlib/init/entry.s            0x00000000   Number         0  entry5.o ABSOLUTE
    ../clib/microlib/init/entry.s            0x00000000   Number         0  entry7a.o ABSOLUTE
    ../clib/microlib/init/entry.s            0x00000000   Number         0  entry7b.o ABSOLUTE
    ../clib/microlib/init/entry.s            0x00000000   Number         0  entry11a.o ABSOLUTE
    ../clib/microlib/init/entry.s            0x00000000   Number         0  entry10b.o ABSOLUTE
    ../clib/microlib/init/entry.s            0x00000000   Number         0  entry10a.o ABSOLUTE
    ../clib/microlib/init/entry.s            0x00000000   Number         0  entry8b.o ABSOLUTE
    ../clib/microlib/init/entry.s            0x00000000   Number         0  entry.o ABSOLUTE
    ../clib/microlib/init/entry.s            0x00000000   Number         0  entry9b.o ABSOLUTE
    ../clib/microlib/init/entry.s            0x00000000   Number         0  entry8a.o ABSOLUTE
    ../clib/microlib/longlong.c              0x00000000   Number         0  llushr.o ABSOLUTE
    ../clib/microlib/longlong.c              0x00000000   Number         0  llshl.o ABSOLUTE
    ../clib/microlib/longlong.c              0x00000000   Number         0  llsshr.o ABSOLUTE
    ../clib/microlib/malloc/malloc.c         0x00000000   Number         0  mallocr.o ABSOLUTE
    ../clib/microlib/malloc/malloc.c         0x00000000   Number         0  mallocra.o ABSOLUTE
    ../clib/microlib/malloc/malloc.c         0x00000000   Number         0  malloc.o ABSOLUTE
    ../clib/microlib/malloc/malloc.c         0x00000000   Number         0  malloca.o ABSOLUTE
    ../clib/microlib/malloc/mvars.c          0x00000000   Number         0  mvars.o ABSOLUTE
    ../clib/microlib/printf/printf.c         0x00000000   Number         0  printf7.o ABSOLUTE
    ../clib/microlib/printf/printf.c         0x00000000   Number         0  printf8.o ABSOLUTE
    ../clib/microlib/printf/printf.c         0x00000000   Number         0  printf3.o ABSOLUTE
    ../clib/microlib/printf/printf.c         0x00000000   Number         0  printfb.o ABSOLUTE
    ../clib/microlib/printf/printf.c         0x00000000   Number         0  printf2.o ABSOLUTE
    ../clib/microlib/printf/printf.c         0x00000000   Number         0  printf4.o ABSOLUTE
    ../clib/microlib/printf/printf.c         0x00000000   Number         0  printf5.o ABSOLUTE
    ../clib/microlib/printf/printf.c         0x00000000   Number         0  printf1.o ABSOLUTE
    ../clib/microlib/printf/printf.c         0x00000000   Number         0  printf0.o ABSOLUTE
    ../clib/microlib/printf/printf.c         0x00000000   Number         0  printfa.o ABSOLUTE
    ../clib/microlib/printf/printf.c         0x00000000   Number         0  printf6.o ABSOLUTE
    ../clib/microlib/printf/stubs.s          0x00000000   Number         0  stubs.o ABSOLUTE
    ../clib/microlib/stdio/streams.c         0x00000000   Number         0  stdout.o ABSOLUTE
    ../clib/microlib/string/memcpy.c         0x00000000   Number         0  memcpya.o ABSOLUTE
    ../clib/microlib/string/memcpy.c         0x00000000   Number         0  memcpyb.o ABSOLUTE
    ../clib/microlib/string/memset.c         0x00000000   Number         0  memseta.o ABSOLUTE
    ../clib/microlib/string/strlen.c         0x00000000   Number         0  strlen.o ABSOLUTE
    ../clib/microlib/string/strncpy.c        0x00000000   Number         0  strncpy.o ABSOLUTE
    ../clib/microlib/string/strstr.c         0x00000000   Number         0  strstr.o ABSOLUTE
    ../clib/microlib/string/strtok.c         0x00000000   Number         0  strtok_r.o ABSOLUTE
    ../clib/microlib/string/strtok.c         0x00000000   Number         0  strtok.o ABSOLUTE
    ../clib/microlib/stubs.s                 0x00000000   Number         0  iusefp.o ABSOLUTE
    ../clib/scanf.c                          0x00000000   Number         0  _chval.o ABSOLUTE
    ../clib/scanf.c                          0x00000000   Number         0  _strtoul.o ABSOLUTE
    ../clib/scanf.c                          0x00000000   Number         0  atoi.o ABSOLUTE
    ../clib/scanf.c                          0x00000000   Number         0  _sgetc.o ABSOLUTE
    ../clib/scanf.c                          0x00000000   Number         0  scanf_fp.o ABSOLUTE
    ../clib/scanf.c                          0x00000000   Number         0  strtod.o ABSOLUTE
    ../clib/scanf.c                          0x00000000   Number         0  strtol.o ABSOLUTE
    ../fplib/microlib/d2f.c                  0x00000000   Number         0  d2f.o ABSOLUTE
    ../fplib/microlib/f2d.c                  0x00000000   Number         0  f2d.o ABSOLUTE
    ../fplib/microlib/fpadd.c                0x00000000   Number         0  dadd.o ABSOLUTE
    ../fplib/microlib/fpadd.c                0x00000000   Number         0  fadd.o ABSOLUTE
    ../fplib/microlib/fpdiv.c                0x00000000   Number         0  fdiv.o ABSOLUTE
    ../fplib/microlib/fpdiv.c                0x00000000   Number         0  ddiv.o ABSOLUTE
    ../fplib/microlib/fpepilogue.c           0x00000000   Number         0  fepilogue.o ABSOLUTE
    ../fplib/microlib/fpepilogue.c           0x00000000   Number         0  depilogue.o ABSOLUTE
    ../fplib/microlib/fpfix.c                0x00000000   Number         0  dfixui.o ABSOLUTE
    ../fplib/microlib/fpfix.c                0x00000000   Number         0  dfixul.o ABSOLUTE
    ../fplib/microlib/fpfix.c                0x00000000   Number         0  ffixui.o ABSOLUTE
    ../fplib/microlib/fpfix.c                0x00000000   Number         0  dfixi.o ABSOLUTE
    ../fplib/microlib/fpflt.c                0x00000000   Number         0  dfltul.o ABSOLUTE
    ../fplib/microlib/fpflt.c                0x00000000   Number         0  ffltui.o ABSOLUTE
    ../fplib/microlib/fpflt.c                0x00000000   Number         0  dflti.o ABSOLUTE
    ../fplib/microlib/fpflt.c                0x00000000   Number         0  dfltui.o ABSOLUTE
    ../fplib/microlib/fpmul.c                0x00000000   Number         0  fmul.o ABSOLUTE
    ../fplib/microlib/fpmul.c                0x00000000   Number         0  dmul.o ABSOLUTE
    ../fplib/microlib/fpscalb.c              0x00000000   Number         0  dscalb.o ABSOLUTE
    ../fplib/microlib/fpsqrt.c               0x00000000   Number         0  dsqrt.o ABSOLUTE
    ../mathlib/atof.c                        0x00000000   Number         0  atof.o ABSOLUTE
    ../mathlib/cos.c                         0x00000000   Number         0  cos.o ABSOLUTE
    ../mathlib/cos.c                         0x00000000   Number         0  cos_x.o ABSOLUTE
    ../mathlib/cos_i.c                       0x00000000   Number         0  cos_i.o ABSOLUTE
    ../mathlib/dunder.c                      0x00000000   Number         0  dunder.o ABSOLUTE
    ../mathlib/exp.c                         0x00000000   Number         0  exp.o ABSOLUTE
    ../mathlib/exp.c                         0x00000000   Number         0  exp_x.o ABSOLUTE
    ../mathlib/floor.c                       0x00000000   Number         0  floor.o ABSOLUTE
    ../mathlib/fpclassify.c                  0x00000000   Number         0  fpclassify.o ABSOLUTE
    ../mathlib/log.c                         0x00000000   Number         0  log_x.o ABSOLUTE
    ../mathlib/log.c                         0x00000000   Number         0  log.o ABSOLUTE
    ../mathlib/log10.c                       0x00000000   Number         0  log10.o ABSOLUTE
    ../mathlib/log10.c                       0x00000000   Number         0  log10_x.o ABSOLUTE
    ../mathlib/poly.c                        0x00000000   Number         0  poly.o ABSOLUTE
    ../mathlib/pow.c                         0x00000000   Number         0  pow_x.o ABSOLUTE
    ../mathlib/pow.c                         0x00000000   Number         0  pow.o ABSOLUTE
    ../mathlib/qnan.c                        0x00000000   Number         0  qnan.o ABSOLUTE
    ../mathlib/rred.c                        0x00000000   Number         0  rred.o ABSOLUTE
    ../mathlib/sin.c                         0x00000000   Number         0  sin.o ABSOLUTE
    ../mathlib/sin.c                         0x00000000   Number         0  sin_x.o ABSOLUTE
    ../mathlib/sin_i.c                       0x00000000   Number         0  sin_i_x.o ABSOLUTE
    ../mathlib/sin_i.c                       0x00000000   Number         0  sin_i.o ABSOLUTE
    ../mathlib/sqrt.c                        0x00000000   Number         0  sqrt_x.o ABSOLUTE
    ../mathlib/sqrt.c                        0x00000000   Number         0  sqrt.o ABSOLUTE
    ../mathlib/tan.c                         0x00000000   Number         0  tan.o ABSOLUTE
    ../mathlib/tan.c                         0x00000000   Number         0  tan_x.o ABSOLUTE
    ../mathlib/tan_i.c                       0x00000000   Number         0  tan_i_x.o ABSOLUTE
    ../mathlib/tan_i.c                       0x00000000   Number         0  tan_i.o ABSOLUTE
    ..\CMSIS\core_cm3.c                      0x00000000   Number         0  core_cm3.o ABSOLUTE
    ..\CMSIS\startup\startup_stm32f2xx.s     0x00000000   Number         0  startup_stm32f2xx.o ABSOLUTE
    ..\CMSIS\system_stm32f2xx.c              0x00000000   Number         0  system_stm32f2xx.o ABSOLUTE
    ..\FWlib\src\misc.c                      0x00000000   Number         0  misc.o ABSOLUTE
    ..\FWlib\src\stm32f2xx_adc.c             0x00000000   Number         0  stm32f2xx_adc.o ABSOLUTE
    ..\FWlib\src\stm32f2xx_dma.c             0x00000000   Number         0  stm32f2xx_dma.o ABSOLUTE
    ..\FWlib\src\stm32f2xx_flash.c           0x00000000   Number         0  stm32f2xx_flash.o ABSOLUTE
    ..\FWlib\src\stm32f2xx_fsmc.c            0x00000000   Number         0  stm32f2xx_fsmc.o ABSOLUTE
    ..\FWlib\src\stm32f2xx_gpio.c            0x00000000   Number         0  stm32f2xx_gpio.o ABSOLUTE
    ..\FWlib\src\stm32f2xx_rcc.c             0x00000000   Number         0  stm32f2xx_rcc.o ABSOLUTE
    ..\FWlib\src\stm32f2xx_sdio.c            0x00000000   Number         0  stm32f2xx_sdio.o ABSOLUTE
    ..\FWlib\src\stm32f2xx_tim.c             0x00000000   Number         0  stm32f2xx_tim.o ABSOLUTE
    ..\FWlib\src\stm32f2xx_usart.c           0x00000000   Number         0  stm32f2xx_usart.o ABSOLUTE
    ..\INI_OTP\Common_InitialCode_6.5inch_COF_NT36682A_CMOS_V4P0_20180704.c 0x00000000   Number         0  common_initialcode_6.5inch_cof_nt36682a_cmos_v4p0_20180704.o ABSOLUTE
    ..\INI_OTP\Common_OTPCode_NT36672A_V3.c  0x00000000   Number         0  common_otpcode_nt36672a_v3.o ABSOLUTE
    ..\INI_OTP\NT36672A_FW_Update_V1P0.c     0x00000000   Number         0  nt36672a_fw_update_v1p0.o ABSOLUTE
    ..\USER\TaskPolling.C                    0x00000000   Number         0  taskpolling.o ABSOLUTE
    ..\USER\adc.c                            0x00000000   Number         0  adc.o ABSOLUTE
    ..\USER\admesy.c                         0x00000000   Number         0  admesy.o ABSOLUTE
    ..\USER\admesy_filter.c                  0x00000000   Number         0  admesy_filter.o ABSOLUTE
    ..\USER\admesy_flicker.c                 0x00000000   Number         0  admesy_flicker.o ABSOLUTE
    ..\USER\board_conf.c                     0x00000000   Number         0  board_conf.o ABSOLUTE
    ..\USER\bsp_bmp.c                        0x00000000   Number         0  bsp_bmp.o ABSOLUTE
    ..\USER\digital_sensor.c                 0x00000000   Number         0  digital_sensor.o ABSOLUTE
    ..\USER\eeprom.c                         0x00000000   Number         0  eeprom.o ABSOLUTE
    ..\USER\ff9\diskio.c                     0x00000000   Number         0  diskio.o ABSOLUTE
    ..\USER\ff9\ff.c                         0x00000000   Number         0  ff.o ABSOLUTE
    ..\USER\ff9\option\ccsbcs.c              0x00000000   Number         0  ccsbcs.o ABSOLUTE
    ..\USER\fpga.c                           0x00000000   Number         0  fpga.o ABSOLUTE
    ..\USER\i2c.c                            0x00000000   Number         0  i2c.o ABSOLUTE
    ..\USER\key.c                            0x00000000   Number         0  key.o ABSOLUTE
    ..\USER\kiss_fft.c                       0x00000000   Number         0  kiss_fft.o ABSOLUTE
    ..\USER\lcd.c                            0x00000000   Number         0  lcd.o ABSOLUTE
    ..\USER\lcd_test.c                       0x00000000   Number         0  lcd_test.o ABSOLUTE
    ..\USER\led.c                            0x00000000   Number         0  led.o ABSOLUTE
    ..\USER\main.c                           0x00000000   Number         0  main.o ABSOLUTE
    ..\USER\power.c                          0x00000000   Number         0  power.o ABSOLUTE
    ..\USER\sdcard.c                         0x00000000   Number         0  sdcard.o ABSOLUTE
    ..\USER\ssd2828.c                        0x00000000   Number         0  ssd2828.o ABSOLUTE
    ..\USER\stm32f2xx_it.c                   0x00000000   Number         0  stm32f2xx_it.o ABSOLUTE
    ..\USER\sysTick.c                        0x00000000   Number         0  systick.o ABSOLUTE
    ..\USER\test_SDcard.c                    0x00000000   Number         0  test_sdcard.o ABSOLUTE
    ..\USER\test_ctp.c                       0x00000000   Number         0  test_ctp.o ABSOLUTE
    ..\USER\test_debug.c                     0x00000000   Number         0  test_debug.o ABSOLUTE
    ..\USER\test_demo.c                      0x00000000   Number         0  test_demo.o ABSOLUTE
    ..\USER\test_esd.c                       0x00000000   Number         0  test_esd.o ABSOLUTE
    ..\USER\test_et1.c                       0x00000000   Number         0  test_et1.o ABSOLUTE
    ..\USER\test_et2.c                       0x00000000   Number         0  test_et2.o ABSOLUTE
    ..\USER\test_et3.c                       0x00000000   Number         0  test_et3.o ABSOLUTE
    ..\USER\test_od.c                        0x00000000   Number         0  test_od.o ABSOLUTE
    ..\USER\test_oqc1.c                      0x00000000   Number         0  test_oqc1.o ABSOLUTE
    ..\USER\test_otp.c                       0x00000000   Number         0  test_otp.o ABSOLUTE
    ..\USER\test_ra.c                        0x00000000   Number         0  test_ra.o ABSOLUTE
    ..\USER\timer.c                          0x00000000   Number         0  timer.o ABSOLUTE
    ..\USER\usart.c                          0x00000000   Number         0  usart.o ABSOLUTE
    ..\\CMSIS\\core_cm3.c                    0x00000000   Number         0  core_cm3.o ABSOLUTE
    cdcmple.s                                0x00000000   Number         0  cdcmple.o ABSOLUTE
    cdrcmple.s                               0x00000000   Number         0  cdrcmple.o ABSOLUTE
    cfcmple.s                                0x00000000   Number         0  cfcmple.o ABSOLUTE
    cfrcmple.s                               0x00000000   Number         0  cfrcmple.o ABSOLUTE
    dc.s                                     0x00000000   Number         0  dc.o ABSOLUTE
    handlers.s                               0x00000000   Number         0  handlers.o ABSOLUTE
    init.s                                   0x00000000   Number         0  init.o ABSOLUTE
    RESET                                    0x08000000   Section      388  startup_stm32f2xx.o(RESET)
    .ARM.Collect$$$$00000000                 0x08000184   Section        0  entry.o(.ARM.Collect$$$$00000000)
    .ARM.Collect$$$$00000001                 0x08000184   Section        4  entry2.o(.ARM.Collect$$$$00000001)
    .ARM.Collect$$$$00000004                 0x08000188   Section        4  entry5.o(.ARM.Collect$$$$00000004)
    .ARM.Collect$$$$00000008                 0x0800018c   Section        0  entry7b.o(.ARM.Collect$$$$00000008)
    .ARM.Collect$$$$0000000A                 0x0800018c   Section        0  entry8b.o(.ARM.Collect$$$$0000000A)
    .ARM.Collect$$$$0000000B                 0x0800018c   Section        8  entry9a.o(.ARM.Collect$$$$0000000B)
    .ARM.Collect$$$$0000000D                 0x08000194   Section        0  entry10a.o(.ARM.Collect$$$$0000000D)
    .ARM.Collect$$$$0000000F                 0x08000194   Section        0  entry11a.o(.ARM.Collect$$$$0000000F)
    .ARM.Collect$$$$00002712                 0x08000194   Section        4  entry2.o(.ARM.Collect$$$$00002712)
    __lit__00000000                          0x08000194   Data           4  entry2.o(.ARM.Collect$$$$00002712)
    .text                                    0x08000198   Section       36  startup_stm32f2xx.o(.text)
    .text                                    0x080001bc   Section        0  stm32f2xx_gpio.o(.text)
    .text                                    0x08000418   Section        0  stm32f2xx_rcc.o(.text)
    .text                                    0x080009a0   Section        0  stm32f2xx_usart.o(.text)
    .text                                    0x08000dbc   Section        0  stm32f2xx_dma.o(.text)
    .text                                    0x08001164   Section        0  stm32f2xx_adc.o(.text)
    .text                                    0x080015c8   Section        0  misc.o(.text)
    .text                                    0x080016a8   Section        0  stm32f2xx_fsmc.o(.text)
    .text                                    0x08001cb0   Section        0  stm32f2xx_sdio.o(.text)
    .text                                    0x08001ea0   Section        0  stm32f2xx_tim.o(.text)
    TI4_Config                               0x0800263f   Thumb Code    80  stm32f2xx_tim.o(.text)
    TI3_Config                               0x080026a1   Thumb Code    72  stm32f2xx_tim.o(.text)
    TI2_Config                               0x08002703   Thumb Code    90  stm32f2xx_tim.o(.text)
    TI1_Config                               0x0800276f   Thumb Code    58  stm32f2xx_tim.o(.text)
    .text                                    0x08002b44   Section        0  system_stm32f2xx.o(.text)
    SetSysClock                              0x08002b45   Thumb Code   192  system_stm32f2xx.o(.text)
    .text                                    0x08002d24   Section        0  main.o(.text)
    .text                                    0x080030bc   Section        0  taskpolling.o(.text)
    .text                                    0x080031fc   Section        0  stm32f2xx_it.o(.text)
    .text                                    0x08003254   Section        0  systick.o(.text)
    .text                                    0x08003398   Section        0  board_conf.o(.text)
    .text                                    0x08003904   Section        0  usart.o(.text)
    itoa                                     0x080050c7   Thumb Code    98  usart.o(.text)
    .text                                    0x080054dc   Section        0  timer.o(.text)
    .text                                    0x08005678   Section        0  admesy.o(.text)
    .text                                    0x080060d8   Section        0  admesy_flicker.o(.text)
    .text                                    0x08006d90   Section        0  kiss_fft.o(.text)
    kf_bfly2                                 0x08006d91   Thumb Code   148  kiss_fft.o(.text)
    kf_bfly4                                 0x08006e25   Thumb Code   572  kiss_fft.o(.text)
    kf_bfly3                                 0x08007061   Thumb Code   492  kiss_fft.o(.text)
    kf_bfly5                                 0x0800724d   Thumb Code  1534  kiss_fft.o(.text)
    kf_bfly_generic                          0x0800784b   Thumb Code   286  kiss_fft.o(.text)
    kf_work                                  0x08007969   Thumb Code   216  kiss_fft.o(.text)
    kf_factor                                0x08007a41   Thumb Code   110  kiss_fft.o(.text)
    .text                                    0x08007c64   Section        0  adc.o(.text)
    .text                                    0x08007f94   Section        0  i2c.o(.text)
    .text                                    0x08008720   Section        0  power.o(.text)
    .text                                    0x08008b34   Section        0  digital_sensor.o(.text)
    .text                                    0x08008db8   Section        0  eeprom.o(.text)
    .text                                    0x0800917c   Section        0  led.o(.text)
    .text                                    0x0800920c   Section        0  key.o(.text)
    .text                                    0x08009924   Section        0  ssd2828.o(.text)
    .text                                    0x0800a1a4   Section        0  fpga.o(.text)
    .text                                    0x0800b060   Section        0  lcd.o(.text)
    .text                                    0x0800bb40   Section        0  sdcard.o(.text)
    SD_DMAEndOfTransferStatus                0x0800bbbf   Thumb Code    14  sdcard.o(.text)
    SD_DMA_RxConfig                          0x0800bbcd   Thumb Code   126  sdcard.o(.text)
    SD_DMA_TxConfig                          0x0800bc4b   Thumb Code   126  sdcard.o(.text)
    GPIO_SDIO_Configuration                  0x0800bcc9   Thumb Code   134  sdcard.o(.text)
    CmdResp1Error                            0x0800bd4f   Thumb Code    90  sdcard.o(.text)
    FindSCR                                  0x0800bda9   Thumb Code   402  sdcard.o(.text)
    SDEnWideBus                              0x0800bf3b   Thumb Code   292  sdcard.o(.text)
    CmdResp2Error                            0x0800c3f1   Thumb Code    70  sdcard.o(.text)
    CmdResp6Error                            0x0800c437   Thumb Code   176  sdcard.o(.text)
    CmdResp3Error                            0x0800c60d   Thumb Code    52  sdcard.o(.text)
    CmdResp7Error                            0x0800c641   Thumb Code    72  sdcard.o(.text)
    CmdError                                 0x0800c689   Thumb Code    44  sdcard.o(.text)
    IsCardProgramming                        0x0800cfa7   Thumb Code   436  sdcard.o(.text)
    .text                                    0x0800d374   Section        0  bsp_bmp.o(.text)
    showBmpHead                              0x0800d375   Thumb Code     2  bsp_bmp.o(.text)
    showBmpInforHead                         0x0800d377   Thumb Code     2  bsp_bmp.o(.text)
    .text                                    0x0800d914   Section        0  lcd_test.o(.text)
    .text                                    0x0800f208   Section        0  test_debug.o(.text)
    .text                                    0x0800f774   Section        0  test_demo.o(.text)
    .text                                    0x0800f810   Section        0  test_od.o(.text)
    .text                                    0x0800fbc4   Section        0  test_et1.o(.text)
    .text                                    0x0800fc60   Section        0  test_et2.o(.text)
    .text                                    0x0800ff50   Section        0  test_et3.o(.text)
    .text                                    0x0800fffc   Section        0  test_otp.o(.text)
    .text                                    0x08012388   Section        0  test_ra.o(.text)
    .text                                    0x080123dc   Section        0  test_esd.o(.text)
    .text                                    0x08012694   Section        0  test_ctp.o(.text)
    .text                                    0x080127d8   Section        0  test_oqc1.o(.text)
    .text                                    0x08012a74   Section        0  test_sdcard.o(.text)
    .text                                    0x08012dc4   Section        0  common_otpcode_nt36672a_v3.o(.text)
    .text                                    0x080136ec   Section        0  nt36672a_fw_update_v1p0.o(.text)
    SD_FW_Read                               0x0801381f   Thumb Code    20  nt36672a_fw_update_v1p0.o(.text)
    TCH_SPI_Config                           0x08013843   Thumb Code   154  nt36672a_fw_update_v1p0.o(.text)
    TCH_SPI_WriteByte                        0x0801394d   Thumb Code   102  nt36672a_fw_update_v1p0.o(.text)
    TCH_SPI_ReadByte                         0x080139b3   Thumb Code   138  nt36672a_fw_update_v1p0.o(.text)
    TCH_SPI_WordWrite                        0x08013a3d   Thumb Code   492  nt36672a_fw_update_v1p0.o(.text)
    TCH_SPI_WordRead                         0x08013c29   Thumb Code   160  nt36672a_fw_update_v1p0.o(.text)
    WriteSram                                0x08013cc9   Thumb Code    20  nt36672a_fw_update_v1p0.o(.text)
    nvt_set_page                             0x08013cdd   Thumb Code    76  nt36672a_fw_update_v1p0.o(.text)
    nvt_bld_crc_en                           0x08013d29   Thumb Code    40  nt36672a_fw_update_v1p0.o(.text)
    nvt_boot_ready                           0x08013d51   Thumb Code    26  nt36672a_fw_update_v1p0.o(.text)
    nvt_bootloader_reset                     0x08013d6b   Thumb Code    22  nt36672a_fw_update_v1p0.o(.text)
    nvt_check_fw_reset_state                 0x08013d81   Thumb Code   146  nt36672a_fw_update_v1p0.o(.text)
    CheckSum                                 0x08013e13   Thumb Code    32  nt36672a_fw_update_v1p0.o(.text)
    byte_to_word                             0x08013e33   Thumb Code    24  nt36672a_fw_update_v1p0.o(.text)
    .text                                    0x08014c74   Section        0  ff.o(.text)
    ld_word                                  0x08014c75   Thumb Code    12  ff.o(.text)
    ld_dword                                 0x08014c81   Thumb Code    24  ff.o(.text)
    st_word                                  0x08014c99   Thumb Code    12  ff.o(.text)
    st_dword                                 0x08014ca5   Thumb Code    24  ff.o(.text)
    mem_cpy                                  0x08014cbd   Thumb Code    26  ff.o(.text)
    mem_set                                  0x08014cd7   Thumb Code    18  ff.o(.text)
    mem_cmp                                  0x08014ce9   Thumb Code    36  ff.o(.text)
    chk_chr                                  0x08014d0d   Thumb Code    20  ff.o(.text)
    sync_window                              0x08014d21   Thumb Code    82  ff.o(.text)
    move_window                              0x08014d73   Thumb Code    52  ff.o(.text)
    sync_fs                                  0x08014da7   Thumb Code   134  ff.o(.text)
    clust2sect                               0x08014e2d   Thumb Code    26  ff.o(.text)
    get_fat                                  0x08014e47   Thumb Code   224  ff.o(.text)
    put_fat                                  0x08014f27   Thumb Code   312  ff.o(.text)
    remove_chain                             0x0801505f   Thumb Code   154  ff.o(.text)
    create_chain                             0x080150f9   Thumb Code   232  ff.o(.text)
    dir_sdi                                  0x080151e1   Thumb Code   154  ff.o(.text)
    dir_next                                 0x0801527b   Thumb Code   268  ff.o(.text)
    dir_alloc                                0x08015387   Thumb Code    96  ff.o(.text)
    ld_clust                                 0x080153e7   Thumb Code    38  ff.o(.text)
    st_clust                                 0x0801540d   Thumb Code    36  ff.o(.text)
    cmp_lfn                                  0x08015431   Thumb Code   148  ff.o(.text)
    pick_lfn                                 0x080154c5   Thumb Code   130  ff.o(.text)
    put_lfn                                  0x08015547   Thumb Code   124  ff.o(.text)
    gen_numname                              0x080155c3   Thumb Code   176  ff.o(.text)
    sum_sfn                                  0x08015673   Thumb Code    32  ff.o(.text)
    dir_read                                 0x08015693   Thumb Code   210  ff.o(.text)
    dir_find                                 0x08015765   Thumb Code   260  ff.o(.text)
    dir_register                             0x08015869   Thumb Code   322  ff.o(.text)
    dir_remove                               0x080159ab   Thumb Code    96  ff.o(.text)
    get_fileinfo                             0x08015a0b   Thumb Code   322  ff.o(.text)
    get_achar                                0x08015b4d   Thumb Code    38  ff.o(.text)
    pattern_matching                         0x08015b73   Thumb Code   196  ff.o(.text)
    create_name                              0x08015c37   Thumb Code   534  ff.o(.text)
    follow_path                              0x08015e4d   Thumb Code   162  ff.o(.text)
    get_ldnumber                             0x08015eef   Thumb Code    72  ff.o(.text)
    check_fs                                 0x08015f37   Thumb Code   142  ff.o(.text)
    find_volume                              0x08015fc5   Thumb Code   748  ff.o(.text)
    validate                                 0x080162b1   Thumb Code    60  ff.o(.text)
    putc_bfd                                 0x080171ad   Thumb Code    68  ff.o(.text)
    putc_flush                               0x080171f1   Thumb Code    44  ff.o(.text)
    putc_init                                0x0801721d   Thumb Code    10  ff.o(.text)
    .text                                    0x080174c8   Section        0  diskio.o(.text)
    .text                                    0x08017630   Section        0  ccsbcs.o(.text)
    .text                                    0x08017720   Section        0  memcpya.o(.text)
    .text                                    0x08017744   Section        0  memseta.o(.text)
    .text                                    0x08017768   Section        0  strstr.o(.text)
    .text                                    0x0801778c   Section        0  strncpy.o(.text)
    .text                                    0x080177a4   Section        0  strlen.o(.text)
    .text                                    0x080177b4   Section        0  strtok.o(.text)
    .text                                    0x080177f8   Section        0  atoi.o(.text)
    .text                                    0x08017812   Section        0  fadd.o(.text)
    .text                                    0x080178c2   Section        0  fmul.o(.text)
    .text                                    0x08017926   Section        0  fdiv.o(.text)
    .text                                    0x080179a2   Section        0  dadd.o(.text)
    .text                                    0x08017af0   Section        0  dmul.o(.text)
    .text                                    0x08017bd4   Section        0  ddiv.o(.text)
    .text                                    0x08017cb2   Section        0  ffltui.o(.text)
    .text                                    0x08017cbc   Section        0  dflti.o(.text)
    .text                                    0x08017cde   Section        0  dfltui.o(.text)
    .text                                    0x08017cf8   Section        0  ffixui.o(.text)
    .text                                    0x08017d20   Section        0  dfixi.o(.text)
    .text                                    0x08017d5e   Section        0  dfixui.o(.text)
    .text                                    0x08017d90   Section        0  f2d.o(.text)
    .text                                    0x08017db8   Section       48  cdcmple.o(.text)
    .text                                    0x08017de8   Section       48  cdrcmple.o(.text)
    .text                                    0x08017e18   Section        0  d2f.o(.text)
    .text                                    0x08017e50   Section       20  cfcmple.o(.text)
    .text                                    0x08017e64   Section       20  cfrcmple.o(.text)
    .text                                    0x08017e78   Section        0  uidiv.o(.text)
    .text                                    0x08017ea4   Section        0  uldiv.o(.text)
    .text                                    0x08017f06   Section        0  llshl.o(.text)
    .text                                    0x08017f24   Section        0  llushr.o(.text)
    .text                                    0x08017f44   Section        0  llsshr.o(.text)
    .text                                    0x08017f68   Section        0  strtod.o(.text)
    _local_sscanf                            0x08017f69   Thumb Code    54  strtod.o(.text)
    .text                                    0x08018004   Section        0  strtol.o(.text)
    .text                                    0x08018074   Section        0  iusefp.o(.text)
    .text                                    0x08018074   Section        0  fepilogue.o(.text)
    .text                                    0x080180e2   Section        0  depilogue.o(.text)
    .text                                    0x0801819c   Section        0  dscalb.o(.text)
    .text                                    0x080181ca   Section        0  dsqrt.o(.text)
    .text                                    0x0801826c   Section        0  dfixul.o(.text)
    .text                                    0x0801829c   Section       36  init.o(.text)
    .text                                    0x080182c0   Section        0  ctype_o.o(.text)
    .text                                    0x080182c8   Section        0  isspace_o.o(.text)
    .text                                    0x080182dc   Section        0  scanf_fp.o(.text)
    _fp_value                                0x080182dd   Thumb Code   256  scanf_fp.o(.text)
    .text                                    0x08018614   Section        0  _sgetc.o(.text)
    .text                                    0x08018654   Section        0  _strtoul.o(.text)
    .text                                    0x080186f2   Section        0  _chval.o(.text)
    .text                                    0x0801870e   Section        0  dfltul.o(.text)
    .text                                    0x08018726   Section        0  __dclz77c.o(.text)
    i.I2C_Delay                              0x08018784   Section        0  i2c.o(i.I2C_Delay)
    i.POWER_IOVCC_Reset                      0x08018790   Section        0  power.o(i.POWER_IOVCC_Reset)
    i.POWER_IOVCC_Set                        0x080187a0   Section        0  power.o(i.POWER_IOVCC_Set)
    i.POWER_VCI_Reset                        0x080187b0   Section        0  power.o(i.POWER_VCI_Reset)
    i.POWER_VCI_Set                          0x080187c0   Section        0  power.o(i.POWER_VCI_Set)
    i.POWER_VSN_Reset                        0x080187d0   Section        0  power.o(i.POWER_VSN_Reset)
    i.POWER_VSN_Set                          0x080187e0   Section        0  power.o(i.POWER_VSN_Set)
    i.POWER_VSP_Reset                        0x080187f0   Section        0  power.o(i.POWER_VSP_Reset)
    i.POWER_VSP_Set                          0x08018804   Section        0  power.o(i.POWER_VSP_Set)
    i.__0printf                              0x08018818   Section        0  printfa.o(i.__0printf)
    i.__0sprintf                             0x08018838   Section        0  printfa.o(i.__0sprintf)
    i.__ARM_fpclassify                       0x08018860   Section        0  fpclassify.o(i.__ARM_fpclassify)
    i.__aeabi_errno_addr                     0x08018888   Section        0  errno.o(i.__aeabi_errno_addr)
    i.__ieee754_rem_pio2                     0x08018890   Section        0  rred.o(i.__ieee754_rem_pio2)
    i.__kernel_cos                           0x08018c18   Section        0  cos_i.o(i.__kernel_cos)
    i.__kernel_poly                          0x08018d14   Section        0  poly.o(i.__kernel_poly)
    i.__kernel_sin                           0x08018dc0   Section        0  sin_i.o(i.__kernel_sin)
    i.__mathlib_dbl_divzero                  0x08018eac   Section        0  dunder.o(i.__mathlib_dbl_divzero)
    i.__mathlib_dbl_infnan                   0x08018ebc   Section        0  dunder.o(i.__mathlib_dbl_infnan)
    i.__mathlib_dbl_infnan2                  0x08018ec2   Section        0  dunder.o(i.__mathlib_dbl_infnan2)
    i.__mathlib_dbl_invalid                  0x08018ec6   Section        0  dunder.o(i.__mathlib_dbl_invalid)
    i.__mathlib_dbl_overflow                 0x08018ed2   Section        0  dunder.o(i.__mathlib_dbl_overflow)
    i.__mathlib_dbl_underflow                0x08018ee0   Section        0  dunder.o(i.__mathlib_dbl_underflow)
    i.__read_errno                           0x08018ef0   Section        0  errno.o(i.__read_errno)
    i.__scatterload_copy                     0x08018efc   Section       14  handlers.o(i.__scatterload_copy)
    i.__scatterload_null                     0x08018f0a   Section        2  handlers.o(i.__scatterload_null)
    i.__scatterload_zeroinit                 0x08018f0c   Section       14  handlers.o(i.__scatterload_zeroinit)
    i.__set_errno                            0x08018f1c   Section        0  errno.o(i.__set_errno)
    i._fp_digits                             0x08018f28   Section        0  printfa.o(i._fp_digits)
    _fp_digits                               0x08018f29   Thumb Code   366  printfa.o(i._fp_digits)
    i._is_digit                              0x080190ac   Section        0  scanf_fp.o(i._is_digit)
    i._printf_core                           0x080190bc   Section        0  printfa.o(i._printf_core)
    _printf_core                             0x080190bd   Thumb Code  1744  printfa.o(i._printf_core)
    i._printf_post_padding                   0x08019798   Section        0  printfa.o(i._printf_post_padding)
    _printf_post_padding                     0x08019799   Thumb Code    36  printfa.o(i._printf_post_padding)
    i._printf_pre_padding                    0x080197bc   Section        0  printfa.o(i._printf_pre_padding)
    _printf_pre_padding                      0x080197bd   Thumb Code    46  printfa.o(i._printf_pre_padding)
    i._sputc                                 0x080197ea   Section        0  printfa.o(i._sputc)
    _sputc                                   0x080197eb   Thumb Code    10  printfa.o(i._sputc)
    i.atof                                   0x080197f4   Section        0  atof.o(i.atof)
    i.cos                                    0x08019820   Section        0  cos.o(i.cos)
    i.exp                                    0x080198bc   Section        0  exp.o(i.exp)
    i.floor                                  0x08019b40   Section        0  floor.o(i.floor)
    i.free                                   0x08019c1c   Section        0  malloc.o(i.free)
    i.log                                    0x08019c6c   Section        0  log.o(i.log)
    i.log10                                  0x08019fc8   Section        0  log10.o(i.log10)
    i.malloc                                 0x0801a0ac   Section        0  malloc.o(i.malloc)
    i.pow                                    0x0801a118   Section        0  pow.o(i.pow)
    i.sin                                    0x0801aaf0   Section        0  sin.o(i.sin)
    i.sqrt                                   0x0801ab90   Section        0  sqrt.o(i.sqrt)
    .constdata                               0x0801abdc   Section        6  led.o(.constdata)
    .constdata                               0x0801abe2   Section      141  ff.o(.constdata)
    ExCvt                                    0x0801abe2   Data         128  ff.o(.constdata)
    LfnOfs                                   0x0801ac62   Data          13  ff.o(.constdata)
    .constdata                               0x0801ac70   Section      942  ccsbcs.o(.constdata)
    Tbl                                      0x0801ac70   Data         256  ccsbcs.o(.constdata)
    cvt1                                     0x0801ad70   Data         498  ccsbcs.o(.constdata)
    cvt2                                     0x0801af62   Data         188  ccsbcs.o(.constdata)
    .constdata                               0x0801b020   Section       88  exp.o(.constdata)
    halF                                     0x0801b020   Data          16  exp.o(.constdata)
    ln2HI                                    0x0801b030   Data          16  exp.o(.constdata)
    ln2LO                                    0x0801b040   Data          16  exp.o(.constdata)
    P                                        0x0801b050   Data          40  exp.o(.constdata)
    .constdata                               0x0801b078   Section      136  pow.o(.constdata)
    bp                                       0x0801b078   Data          16  pow.o(.constdata)
    dp_h                                     0x0801b088   Data          16  pow.o(.constdata)
    dp_l                                     0x0801b098   Data          16  pow.o(.constdata)
    L                                        0x0801b0a8   Data          48  pow.o(.constdata)
    P                                        0x0801b0d8   Data          40  pow.o(.constdata)
    .constdata                               0x0801b100   Section       48  cos_i.o(.constdata)
    C                                        0x0801b100   Data          48  cos_i.o(.constdata)
    .constdata                               0x0801b130   Section       56  log.o(.constdata)
    Lg2                                      0x0801b130   Data          24  log.o(.constdata)
    Lg                                       0x0801b148   Data          32  log.o(.constdata)
    .constdata                               0x0801b168   Section        8  qnan.o(.constdata)
    .constdata                               0x0801b170   Section      200  rred.o(.constdata)
    pio2s                                    0x0801b170   Data          48  rred.o(.constdata)
    twooverpi                                0x0801b1a0   Data         152  rred.o(.constdata)
    .constdata                               0x0801b238   Section       40  sin_i.o(.constdata)
    S                                        0x0801b238   Data          40  sin_i.o(.constdata)
    .constdata                               0x0801b260   Section      129  ctype_o.o(.constdata)
    .constdata                               0x0801b2e4   Section        4  ctype_o.o(.constdata)
    table                                    0x0801b2e4   Data           4  ctype_o.o(.constdata)
    .conststring                             0x0801b2e8   Section      189  main.o(.conststring)
    .conststring                             0x0801b3a8   Section      133  board_conf.o(.conststring)
    .conststring                             0x0801b430   Section      159  usart.o(.conststring)
    .conststring                             0x0801b4d0   Section       72  power.o(.conststring)
    .conststring                             0x0801b518   Section       74  digital_sensor.o(.conststring)
    .conststring                             0x0801b564   Section       74  key.o(.conststring)
    .conststring                             0x0801b5b0   Section       65  lcd_test.o(.conststring)
    .conststring                             0x0801b5f4   Section     3068  test_otp.o(.conststring)
    .conststring                             0x0801c1f0   Section      431  common_otpcode_nt36672a_v3.o(.conststring)
    .conststring                             0x0801c3a0   Section      247  nt36672a_fw_update_v1p0.o(.conststring)
    .data                                    0x20000000   Section       16  stm32f2xx_rcc.o(.data)
    APBAHBPrescTable                         0x20000000   Data          16  stm32f2xx_rcc.o(.data)
    .data                                    0x20000010   Section       20  system_stm32f2xx.o(.data)
    .data                                    0x20000024   Section        1  main.o(.data)
    .data                                    0x20000025   Section        6  taskpolling.o(.data)
    c0                                       0x20000025   Data           1  taskpolling.o(.data)
    c1                                       0x20000026   Data           1  taskpolling.o(.data)
    c2                                       0x20000027   Data           1  taskpolling.o(.data)
    c0_flag                                  0x20000028   Data           1  taskpolling.o(.data)
    c1_flag                                  0x20000029   Data           1  taskpolling.o(.data)
    c2_flag                                  0x2000002a   Data           1  taskpolling.o(.data)
    .data                                    0x2000002c   Section        4  systick.o(.data)
    DelayUsCnt                               0x2000002c   Data           4  systick.o(.data)
    .data                                    0x20000030   Section       37  usart.o(.data)
    .data                                    0x20000058   Section       10  timer.o(.data)
    .data                                    0x20000064   Section       32  admesy.o(.data)
    .data                                    0x20000084   Section        2  adc.o(.data)
    .data                                    0x20000088   Section       13  i2c.o(.data)
    .data                                    0x20000095   Section        1  digital_sensor.o(.data)
    .data                                    0x20000098   Section       12  led.o(.data)
    .data                                    0x200000a4   Section       14  key.o(.data)
    debounce                                 0x200000ab   Data           1  key.o(.data)
    key_old                                  0x200000ac   Data           1  key.o(.data)
    auto_dly_cnt                             0x200000ae   Data           2  key.o(.data)
    debounce                                 0x200000b0   Data           1  key.o(.data)
    ctp_old                                  0x200000b1   Data           1  key.o(.data)
    .data                                    0x200000b2   Section        2  ssd2828.o(.data)
    .data                                    0x200000b4   Section       10  fpga.o(.data)
    .data                                    0x200000be   Section        4  lcd.o(.data)
    .data                                    0x200000c4   Section       20  sdcard.o(.data)
    CardType                                 0x200000c4   Data           4  sdcard.o(.data)
    RCA                                      0x200000c8   Data           4  sdcard.o(.data)
    .data                                    0x200000d8   Section        3  bsp_bmp.o(.data)
    .data                                    0x200000dc   Section       60  lcd_test.o(.data)
    Reg_0A                                   0x20000117   Data           1  lcd_test.o(.data)
    .data                                    0x20000118   Section       49  test_otp.o(.data)
    .data                                    0x20000149   Section        2  test_sdcard.o(.data)
    .data                                    0x2000014c   Section     2364  common_initialcode_6.5inch_cof_nt36682a_cmos_v4p0_20180704.o(.data)
    .data                                    0x20000a88   Section        5  common_otpcode_nt36672a_v3.o(.data)
    .data                                    0x20000a90   Section       45  nt36672a_fw_update_v1p0.o(.data)
    bin_map                                  0x20000aa4   Data           4  nt36672a_fw_update_v1p0.o(.data)
    partition                                0x20000ab8   Data           4  nt36672a_fw_update_v1p0.o(.data)
    ilm_dlm_num                              0x20000abc   Data           1  nt36672a_fw_update_v1p0.o(.data)
    .data                                    0x20000ac0   Section        6  ff.o(.data)
    FatFs                                    0x20000ac0   Data           4  ff.o(.data)
    Fsid                                     0x20000ac4   Data           2  ff.o(.data)
    .data                                    0x20000ac8   Section        4  strtok.o(.data)
    state                                    0x20000ac8   Data           4  strtok.o(.data)
    .data                                    0x20000acc   Section        4  stdout.o(.data)
    .data                                    0x20000ad0   Section        4  mvars.o(.data)
    .data                                    0x20000ad4   Section        4  mvars.o(.data)
    .data                                    0x20000ad8   Section        4  errno.o(.data)
    _errno                                   0x20000ad8   Data           4  errno.o(.data)
    .bss                                     0x20000adc   Section     1024  usart.o(.bss)
    .bss                                     0x20000edc   Section     8224  admesy.o(.bss)
    .bss                                     0x20002efc   Section      196  sdcard.o(.bss)
    CSD_Tab                                  0x20002efc   Data          16  sdcard.o(.bss)
    CID_Tab                                  0x20002f0c   Data          16  sdcard.o(.bss)
    SDSTATUS_Tab                             0x20002f1c   Data          16  sdcard.o(.bss)
    .bss                                     0x20002fc0   Section     9680  bsp_bmp.o(.bss)
    .bss                                     0x20005590   Section       32  test_otp.o(.bss)
    .bss                                     0x200055b0   Section     1054  test_sdcard.o(.bss)
    .bss                                     0x200059d0   Section     1944  nt36672a_fw_update_v1p0.o(.bss)
    fileInfo                                 0x20006050   Data         280  nt36672a_fw_update_v1p0.o(.bss)
    .bss                                     0x20006168   Section      512  ff.o(.bss)
    LfnBuf                                   0x20006168   Data         512  ff.o(.bss)
    HEAP                                     0x20006368   Section    98304  startup_stm32f2xx.o(HEAP)
    STACK                                    0x2001e368   Section     1024  startup_stm32f2xx.o(STACK)

    Global Symbols

    Symbol Name                              Value     Ov Type        Size  Object(Section)

    BuildAttributes$$THM_ISAv4$P$D$K$B$S$PE$A:L22UL41UL21$X:L11$S22US41US21$IEEE1$IW$USESV6$~STKCKD$USESV7$~SHL$OTIME$ROPI$IEEEX$EBA8$MICROLIB$REQ8$PRES8$EABIv2 0x00000000   Number         0  anon$$obj.o ABSOLUTE
    __ARM_use_no_argv                        0x00000000   Number         0  main.o ABSOLUTE
    _printf_a                                0x00000000   Number         0  stubs.o ABSOLUTE
    _printf_c                                0x00000000   Number         0  stubs.o ABSOLUTE
    _printf_charcount                        0x00000000   Number         0  stubs.o ABSOLUTE
    _printf_d                                0x00000000   Number         0  stubs.o ABSOLUTE
    _printf_e                                0x00000000   Number         0  stubs.o ABSOLUTE
    _printf_f                                0x00000000   Number         0  stubs.o ABSOLUTE
    _printf_flags                            0x00000000   Number         0  stubs.o ABSOLUTE
    _printf_fp_dec                           0x00000000   Number         0  stubs.o ABSOLUTE
    _printf_fp_hex                           0x00000000   Number         0  stubs.o ABSOLUTE
    _printf_g                                0x00000000   Number         0  stubs.o ABSOLUTE
    _printf_i                                0x00000000   Number         0  stubs.o ABSOLUTE
    _printf_int_dec                          0x00000000   Number         0  stubs.o ABSOLUTE
    _printf_l                                0x00000000   Number         0  stubs.o ABSOLUTE
    _printf_lc                               0x00000000   Number         0  stubs.o ABSOLUTE
    _printf_ll                               0x00000000   Number         0  stubs.o ABSOLUTE
    _printf_lld                              0x00000000   Number         0  stubs.o ABSOLUTE
    _printf_lli                              0x00000000   Number         0  stubs.o ABSOLUTE
    _printf_llo                              0x00000000   Number         0  stubs.o ABSOLUTE
    _printf_llu                              0x00000000   Number         0  stubs.o ABSOLUTE
    _printf_llx                              0x00000000   Number         0  stubs.o ABSOLUTE
    _printf_longlong_dec                     0x00000000   Number         0  stubs.o ABSOLUTE
    _printf_longlong_hex                     0x00000000   Number         0  stubs.o ABSOLUTE
    _printf_longlong_oct                     0x00000000   Number         0  stubs.o ABSOLUTE
    _printf_ls                               0x00000000   Number         0  stubs.o ABSOLUTE
    _printf_mbtowc                           0x00000000   Number         0  stubs.o ABSOLUTE
    _printf_n                                0x00000000   Number         0  stubs.o ABSOLUTE
    _printf_o                                0x00000000   Number         0  stubs.o ABSOLUTE
    _printf_p                                0x00000000   Number         0  stubs.o ABSOLUTE
    _printf_percent                          0x00000000   Number         0  stubs.o ABSOLUTE
    _printf_pre_padding                      0x00000000   Number         0  stubs.o ABSOLUTE
    _printf_return_value                     0x00000000   Number         0  stubs.o ABSOLUTE
    _printf_s                                0x00000000   Number         0  stubs.o ABSOLUTE
    _printf_sizespec                         0x00000000   Number         0  stubs.o ABSOLUTE
    _printf_str                              0x00000000   Number         0  stubs.o ABSOLUTE
    _printf_truncate_signed                  0x00000000   Number         0  stubs.o ABSOLUTE
    _printf_truncate_unsigned                0x00000000   Number         0  stubs.o ABSOLUTE
    _printf_u                                0x00000000   Number         0  stubs.o ABSOLUTE
    _printf_wc                               0x00000000   Number         0  stubs.o ABSOLUTE
    _printf_wctomb                           0x00000000   Number         0  stubs.o ABSOLUTE
    _printf_widthprec                        0x00000000   Number         0  stubs.o ABSOLUTE
    _printf_x                                0x00000000   Number         0  stubs.o ABSOLUTE
    __cpp_initialize__aeabi_                  - Undefined Weak Reference
    __cxa_finalize                            - Undefined Weak Reference
    _clock_init                               - Undefined Weak Reference
    _microlib_exit                            - Undefined Weak Reference
    __Vectors_Size                           0x00000184   Number         0  startup_stm32f2xx.o ABSOLUTE
    __Vectors                                0x08000000   Data           4  startup_stm32f2xx.o(RESET)
    __Vectors_End                            0x08000184   Data           0  startup_stm32f2xx.o(RESET)
    __main                                   0x08000185   Thumb Code     0  entry.o(.ARM.Collect$$$$00000000)
    _main_stk                                0x08000185   Thumb Code     0  entry2.o(.ARM.Collect$$$$00000001)
    _main_scatterload                        0x08000189   Thumb Code     0  entry5.o(.ARM.Collect$$$$00000004)
    __main_after_scatterload                 0x0800018d   Thumb Code     0  entry5.o(.ARM.Collect$$$$00000004)
    _main_clock                              0x0800018d   Thumb Code     0  entry7b.o(.ARM.Collect$$$$00000008)
    _main_cpp_init                           0x0800018d   Thumb Code     0  entry8b.o(.ARM.Collect$$$$0000000A)
    _main_init                               0x0800018d   Thumb Code     0  entry9a.o(.ARM.Collect$$$$0000000B)
    __rt_final_cpp                           0x08000195   Thumb Code     0  entry10a.o(.ARM.Collect$$$$0000000D)
    __rt_final_exit                          0x08000195   Thumb Code     0  entry11a.o(.ARM.Collect$$$$0000000F)
    Reset_Handler                            0x08000199   Thumb Code     8  startup_stm32f2xx.o(.text)
    ADC_IRQHandler                           0x080001b3   Thumb Code     0  startup_stm32f2xx.o(.text)
    CAN1_RX0_IRQHandler                      0x080001b3   Thumb Code     0  startup_stm32f2xx.o(.text)
    CAN1_RX1_IRQHandler                      0x080001b3   Thumb Code     0  startup_stm32f2xx.o(.text)
    CAN1_SCE_IRQHandler                      0x080001b3   Thumb Code     0  startup_stm32f2xx.o(.text)
    CAN1_TX_IRQHandler                       0x080001b3   Thumb Code     0  startup_stm32f2xx.o(.text)
    CAN2_RX0_IRQHandler                      0x080001b3   Thumb Code     0  startup_stm32f2xx.o(.text)
    CAN2_RX1_IRQHandler                      0x080001b3   Thumb Code     0  startup_stm32f2xx.o(.text)
    CAN2_SCE_IRQHandler                      0x080001b3   Thumb Code     0  startup_stm32f2xx.o(.text)
    CAN2_TX_IRQHandler                       0x080001b3   Thumb Code     0  startup_stm32f2xx.o(.text)
    CRYP_IRQHandler                          0x080001b3   Thumb Code     0  startup_stm32f2xx.o(.text)
    DCMI_IRQHandler                          0x080001b3   Thumb Code     0  startup_stm32f2xx.o(.text)
    DMA1_Stream0_IRQHandler                  0x080001b3   Thumb Code     0  startup_stm32f2xx.o(.text)
    DMA1_Stream1_IRQHandler                  0x080001b3   Thumb Code     0  startup_stm32f2xx.o(.text)
    DMA1_Stream2_IRQHandler                  0x080001b3   Thumb Code     0  startup_stm32f2xx.o(.text)
    DMA1_Stream3_IRQHandler                  0x080001b3   Thumb Code     0  startup_stm32f2xx.o(.text)
    DMA1_Stream4_IRQHandler                  0x080001b3   Thumb Code     0  startup_stm32f2xx.o(.text)
    DMA1_Stream5_IRQHandler                  0x080001b3   Thumb Code     0  startup_stm32f2xx.o(.text)
    DMA1_Stream6_IRQHandler                  0x080001b3   Thumb Code     0  startup_stm32f2xx.o(.text)
    DMA1_Stream7_IRQHandler                  0x080001b3   Thumb Code     0  startup_stm32f2xx.o(.text)
    DMA2_Stream0_IRQHandler                  0x080001b3   Thumb Code     0  startup_stm32f2xx.o(.text)
    DMA2_Stream1_IRQHandler                  0x080001b3   Thumb Code     0  startup_stm32f2xx.o(.text)
    DMA2_Stream2_IRQHandler                  0x080001b3   Thumb Code     0  startup_stm32f2xx.o(.text)
    DMA2_Stream4_IRQHandler                  0x080001b3   Thumb Code     0  startup_stm32f2xx.o(.text)
    DMA2_Stream5_IRQHandler                  0x080001b3   Thumb Code     0  startup_stm32f2xx.o(.text)
    DMA2_Stream6_IRQHandler                  0x080001b3   Thumb Code     0  startup_stm32f2xx.o(.text)
    DMA2_Stream7_IRQHandler                  0x080001b3   Thumb Code     0  startup_stm32f2xx.o(.text)
    ETH_IRQHandler                           0x080001b3   Thumb Code     0  startup_stm32f2xx.o(.text)
    ETH_WKUP_IRQHandler                      0x080001b3   Thumb Code     0  startup_stm32f2xx.o(.text)
    EXTI0_IRQHandler                         0x080001b3   Thumb Code     0  startup_stm32f2xx.o(.text)
    EXTI15_10_IRQHandler                     0x080001b3   Thumb Code     0  startup_stm32f2xx.o(.text)
    EXTI1_IRQHandler                         0x080001b3   Thumb Code     0  startup_stm32f2xx.o(.text)
    EXTI2_IRQHandler                         0x080001b3   Thumb Code     0  startup_stm32f2xx.o(.text)
    EXTI3_IRQHandler                         0x080001b3   Thumb Code     0  startup_stm32f2xx.o(.text)
    EXTI4_IRQHandler                         0x080001b3   Thumb Code     0  startup_stm32f2xx.o(.text)
    EXTI9_5_IRQHandler                       0x080001b3   Thumb Code     0  startup_stm32f2xx.o(.text)
    FLASH_IRQHandler                         0x080001b3   Thumb Code     0  startup_stm32f2xx.o(.text)
    FSMC_IRQHandler                          0x080001b3   Thumb Code     0  startup_stm32f2xx.o(.text)
    HASH_RNG_IRQHandler                      0x080001b3   Thumb Code     0  startup_stm32f2xx.o(.text)
    I2C1_ER_IRQHandler                       0x080001b3   Thumb Code     0  startup_stm32f2xx.o(.text)
    I2C1_EV_IRQHandler                       0x080001b3   Thumb Code     0  startup_stm32f2xx.o(.text)
    I2C2_ER_IRQHandler                       0x080001b3   Thumb Code     0  startup_stm32f2xx.o(.text)
    I2C2_EV_IRQHandler                       0x080001b3   Thumb Code     0  startup_stm32f2xx.o(.text)
    I2C3_ER_IRQHandler                       0x080001b3   Thumb Code     0  startup_stm32f2xx.o(.text)
    I2C3_EV_IRQHandler                       0x080001b3   Thumb Code     0  startup_stm32f2xx.o(.text)
    OTG_FS_IRQHandler                        0x080001b3   Thumb Code     0  startup_stm32f2xx.o(.text)
    OTG_FS_WKUP_IRQHandler                   0x080001b3   Thumb Code     0  startup_stm32f2xx.o(.text)
    OTG_HS_EP1_IN_IRQHandler                 0x080001b3   Thumb Code     0  startup_stm32f2xx.o(.text)
    OTG_HS_EP1_OUT_IRQHandler                0x080001b3   Thumb Code     0  startup_stm32f2xx.o(.text)
    OTG_HS_IRQHandler                        0x080001b3   Thumb Code     0  startup_stm32f2xx.o(.text)
    OTG_HS_WKUP_IRQHandler                   0x080001b3   Thumb Code     0  startup_stm32f2xx.o(.text)
    PVD_IRQHandler                           0x080001b3   Thumb Code     0  startup_stm32f2xx.o(.text)
    RCC_IRQHandler                           0x080001b3   Thumb Code     0  startup_stm32f2xx.o(.text)
    RTC_Alarm_IRQHandler                     0x080001b3   Thumb Code     0  startup_stm32f2xx.o(.text)
    RTC_WKUP_IRQHandler                      0x080001b3   Thumb Code     0  startup_stm32f2xx.o(.text)
    SPI1_IRQHandler                          0x080001b3   Thumb Code     0  startup_stm32f2xx.o(.text)
    SPI2_IRQHandler                          0x080001b3   Thumb Code     0  startup_stm32f2xx.o(.text)
    SPI3_IRQHandler                          0x080001b3   Thumb Code     0  startup_stm32f2xx.o(.text)
    TAMP_STAMP_IRQHandler                    0x080001b3   Thumb Code     0  startup_stm32f2xx.o(.text)
    TIM1_BRK_TIM9_IRQHandler                 0x080001b3   Thumb Code     0  startup_stm32f2xx.o(.text)
    TIM1_CC_IRQHandler                       0x080001b3   Thumb Code     0  startup_stm32f2xx.o(.text)
    TIM1_TRG_COM_TIM11_IRQHandler            0x080001b3   Thumb Code     0  startup_stm32f2xx.o(.text)
    TIM1_UP_TIM10_IRQHandler                 0x080001b3   Thumb Code     0  startup_stm32f2xx.o(.text)
    TIM5_IRQHandler                          0x080001b3   Thumb Code     0  startup_stm32f2xx.o(.text)
    TIM6_DAC_IRQHandler                      0x080001b3   Thumb Code     0  startup_stm32f2xx.o(.text)
    TIM7_IRQHandler                          0x080001b3   Thumb Code     0  startup_stm32f2xx.o(.text)
    TIM8_BRK_TIM12_IRQHandler                0x080001b3   Thumb Code     0  startup_stm32f2xx.o(.text)
    TIM8_CC_IRQHandler                       0x080001b3   Thumb Code     0  startup_stm32f2xx.o(.text)
    TIM8_TRG_COM_TIM14_IRQHandler            0x080001b3   Thumb Code     0  startup_stm32f2xx.o(.text)
    TIM8_UP_TIM13_IRQHandler                 0x080001b3   Thumb Code     0  startup_stm32f2xx.o(.text)
    UART5_IRQHandler                         0x080001b3   Thumb Code     0  startup_stm32f2xx.o(.text)
    USART2_IRQHandler                        0x080001b3   Thumb Code     0  startup_stm32f2xx.o(.text)
    USART3_IRQHandler                        0x080001b3   Thumb Code     0  startup_stm32f2xx.o(.text)
    USART6_IRQHandler                        0x080001b3   Thumb Code     0  startup_stm32f2xx.o(.text)
    WWDG_IRQHandler                          0x080001b3   Thumb Code     0  startup_stm32f2xx.o(.text)
    GPIO_DeInit                              0x080001bd   Thumb Code   220  stm32f2xx_gpio.o(.text)
    GPIO_Init                                0x08000299   Thumb Code   144  stm32f2xx_gpio.o(.text)
    GPIO_StructInit                          0x08000329   Thumb Code    18  stm32f2xx_gpio.o(.text)
    GPIO_PinLockConfig                       0x0800033b   Thumb Code    34  stm32f2xx_gpio.o(.text)
    GPIO_ReadInputDataBit                    0x0800035d   Thumb Code    18  stm32f2xx_gpio.o(.text)
    GPIO_ReadInputData                       0x0800036f   Thumb Code     8  stm32f2xx_gpio.o(.text)
    GPIO_ReadOutputDataBit                   0x08000377   Thumb Code    18  stm32f2xx_gpio.o(.text)
    GPIO_ReadOutputData                      0x08000389   Thumb Code     8  stm32f2xx_gpio.o(.text)
    GPIO_SetBits                             0x08000391   Thumb Code     4  stm32f2xx_gpio.o(.text)
    GPIO_ResetBits                           0x08000395   Thumb Code     4  stm32f2xx_gpio.o(.text)
    GPIO_WriteBit                            0x08000399   Thumb Code    10  stm32f2xx_gpio.o(.text)
    GPIO_Write                               0x080003a3   Thumb Code     4  stm32f2xx_gpio.o(.text)
    GPIO_ToggleBits                          0x080003a7   Thumb Code     8  stm32f2xx_gpio.o(.text)
    GPIO_PinAFConfig                         0x080003af   Thumb Code    70  stm32f2xx_gpio.o(.text)
    RCC_DeInit                               0x08000419   Thumb Code    60  stm32f2xx_rcc.o(.text)
    RCC_HSEConfig                            0x08000455   Thumb Code    14  stm32f2xx_rcc.o(.text)
    RCC_GetFlagStatus                        0x08000463   Thumb Code    60  stm32f2xx_rcc.o(.text)
    RCC_WaitForHSEStartUp                    0x0800049f   Thumb Code    56  stm32f2xx_rcc.o(.text)
    RCC_AdjustHSICalibrationValue            0x080004d7   Thumb Code    20  stm32f2xx_rcc.o(.text)
    RCC_HSICmd                               0x080004eb   Thumb Code     6  stm32f2xx_rcc.o(.text)
    RCC_LSEConfig                            0x080004f1   Thumb Code    46  stm32f2xx_rcc.o(.text)
    RCC_LSICmd                               0x0800051f   Thumb Code     6  stm32f2xx_rcc.o(.text)
    RCC_PLLConfig                            0x08000525   Thumb Code    32  stm32f2xx_rcc.o(.text)
    RCC_PLLCmd                               0x08000545   Thumb Code     6  stm32f2xx_rcc.o(.text)
    RCC_PLLI2SConfig                         0x0800054b   Thumb Code    14  stm32f2xx_rcc.o(.text)
    RCC_PLLI2SCmd                            0x08000559   Thumb Code     6  stm32f2xx_rcc.o(.text)
    RCC_ClockSecuritySystemCmd               0x0800055f   Thumb Code     6  stm32f2xx_rcc.o(.text)
    RCC_MCO1Config                           0x08000565   Thumb Code    28  stm32f2xx_rcc.o(.text)
    RCC_MCO2Config                           0x08000581   Thumb Code    28  stm32f2xx_rcc.o(.text)
    RCC_SYSCLKConfig                         0x0800059d   Thumb Code    20  stm32f2xx_rcc.o(.text)
    RCC_GetSYSCLKSource                      0x080005b1   Thumb Code    12  stm32f2xx_rcc.o(.text)
    RCC_HCLKConfig                           0x080005bd   Thumb Code    20  stm32f2xx_rcc.o(.text)
    RCC_PCLK1Config                          0x080005d1   Thumb Code    20  stm32f2xx_rcc.o(.text)
    RCC_PCLK2Config                          0x080005e5   Thumb Code    22  stm32f2xx_rcc.o(.text)
    RCC_GetClocksFreq                        0x080005fb   Thumb Code   222  stm32f2xx_rcc.o(.text)
    RCC_RTCCLKConfig                         0x080006d9   Thumb Code    54  stm32f2xx_rcc.o(.text)
    RCC_RTCCLKCmd                            0x0800070f   Thumb Code     8  stm32f2xx_rcc.o(.text)
    RCC_BackupResetCmd                       0x08000717   Thumb Code     8  stm32f2xx_rcc.o(.text)
    RCC_I2SCLKConfig                         0x0800071f   Thumb Code     6  stm32f2xx_rcc.o(.text)
    RCC_AHB1PeriphClockCmd                   0x08000725   Thumb Code    34  stm32f2xx_rcc.o(.text)
    RCC_AHB2PeriphClockCmd                   0x08000747   Thumb Code    34  stm32f2xx_rcc.o(.text)
    RCC_AHB3PeriphClockCmd                   0x08000769   Thumb Code    34  stm32f2xx_rcc.o(.text)
    RCC_APB1PeriphClockCmd                   0x0800078b   Thumb Code    34  stm32f2xx_rcc.o(.text)
    RCC_APB2PeriphClockCmd                   0x080007ad   Thumb Code    34  stm32f2xx_rcc.o(.text)
    RCC_AHB1PeriphResetCmd                   0x080007cf   Thumb Code    34  stm32f2xx_rcc.o(.text)
    RCC_AHB2PeriphResetCmd                   0x080007f1   Thumb Code    72  stm32f2xx_rcc.o(.text)
    RCC_AHB3PeriphResetCmd                   0x08000839   Thumb Code    34  stm32f2xx_rcc.o(.text)
    RCC_APB1PeriphResetCmd                   0x0800085b   Thumb Code    34  stm32f2xx_rcc.o(.text)
    RCC_APB2PeriphResetCmd                   0x0800087d   Thumb Code    34  stm32f2xx_rcc.o(.text)
    RCC_AHB1PeriphClockLPModeCmd             0x0800089f   Thumb Code    34  stm32f2xx_rcc.o(.text)
    RCC_AHB2PeriphClockLPModeCmd             0x080008c1   Thumb Code    34  stm32f2xx_rcc.o(.text)
    RCC_AHB3PeriphClockLPModeCmd             0x080008e3   Thumb Code    34  stm32f2xx_rcc.o(.text)
    RCC_APB1PeriphClockLPModeCmd             0x08000905   Thumb Code    34  stm32f2xx_rcc.o(.text)
    RCC_APB2PeriphClockLPModeCmd             0x08000927   Thumb Code    34  stm32f2xx_rcc.o(.text)
    RCC_ITConfig                             0x08000949   Thumb Code    34  stm32f2xx_rcc.o(.text)
    RCC_ClearFlag                            0x0800096b   Thumb Code    18  stm32f2xx_rcc.o(.text)
    RCC_GetITStatus                          0x0800097d   Thumb Code    22  stm32f2xx_rcc.o(.text)
    RCC_ClearITPendingBit                    0x08000993   Thumb Code     8  stm32f2xx_rcc.o(.text)
    USART_DeInit                             0x080009a1   Thumb Code   156  stm32f2xx_usart.o(.text)
    USART_Init                               0x08000a3d   Thumb Code   204  stm32f2xx_usart.o(.text)
    USART_StructInit                         0x08000b09   Thumb Code    24  stm32f2xx_usart.o(.text)
    USART_ClockInit                          0x08000b21   Thumb Code    32  stm32f2xx_usart.o(.text)
    USART_ClockStructInit                    0x08000b41   Thumb Code    12  stm32f2xx_usart.o(.text)
    USART_Cmd                                0x08000b4d   Thumb Code    24  stm32f2xx_usart.o(.text)
    USART_SetPrescaler                       0x08000b65   Thumb Code    16  stm32f2xx_usart.o(.text)
    USART_OverSampling8Cmd                   0x08000b75   Thumb Code    22  stm32f2xx_usart.o(.text)
    USART_OneBitMethodCmd                    0x08000b8b   Thumb Code    24  stm32f2xx_usart.o(.text)
    USART_SendData                           0x08000ba3   Thumb Code     8  stm32f2xx_usart.o(.text)
    USART_ReceiveData                        0x08000bab   Thumb Code    10  stm32f2xx_usart.o(.text)
    USART_SetAddress                         0x08000bb5   Thumb Code    18  stm32f2xx_usart.o(.text)
    USART_ReceiverWakeUpCmd                  0x08000bc7   Thumb Code    24  stm32f2xx_usart.o(.text)
    USART_WakeUpConfig                       0x08000bdf   Thumb Code    18  stm32f2xx_usart.o(.text)
    USART_LINBreakDetectLengthConfig         0x08000bf1   Thumb Code    18  stm32f2xx_usart.o(.text)
    USART_LINCmd                             0x08000c03   Thumb Code    24  stm32f2xx_usart.o(.text)
    USART_SendBreak                          0x08000c1b   Thumb Code    10  stm32f2xx_usart.o(.text)
    USART_HalfDuplexCmd                      0x08000c25   Thumb Code    24  stm32f2xx_usart.o(.text)
    USART_SetGuardTime                       0x08000c3d   Thumb Code    16  stm32f2xx_usart.o(.text)
    USART_SmartCardCmd                       0x08000c4d   Thumb Code    24  stm32f2xx_usart.o(.text)
    USART_SmartCardNACKCmd                   0x08000c65   Thumb Code    24  stm32f2xx_usart.o(.text)
    USART_IrDAConfig                         0x08000c7d   Thumb Code    18  stm32f2xx_usart.o(.text)
    USART_IrDACmd                            0x08000c8f   Thumb Code    24  stm32f2xx_usart.o(.text)
    USART_DMACmd                             0x08000ca7   Thumb Code    18  stm32f2xx_usart.o(.text)
    USART_ITConfig                           0x08000cb9   Thumb Code    74  stm32f2xx_usart.o(.text)
    USART_GetFlagStatus                      0x08000d03   Thumb Code    26  stm32f2xx_usart.o(.text)
    USART_ClearFlag                          0x08000d1d   Thumb Code    18  stm32f2xx_usart.o(.text)
    USART_GetITStatus                        0x08000d2f   Thumb Code   110  stm32f2xx_usart.o(.text)
    USART_ClearITPendingBit                  0x08000d9d   Thumb Code    30  stm32f2xx_usart.o(.text)
    DMA_DeInit                               0x08000dbd   Thumb Code   324  stm32f2xx_dma.o(.text)
    DMA_Init                                 0x08000f01   Thumb Code    82  stm32f2xx_dma.o(.text)
    DMA_StructInit                           0x08000f53   Thumb Code    34  stm32f2xx_dma.o(.text)
    DMA_Cmd                                  0x08000f75   Thumb Code    22  stm32f2xx_dma.o(.text)
    DMA_PeriphIncOffsetSizeConfig            0x08000f8b   Thumb Code    22  stm32f2xx_dma.o(.text)
    DMA_FlowControllerConfig                 0x08000fa1   Thumb Code    22  stm32f2xx_dma.o(.text)
    DMA_SetCurrDataCounter                   0x08000fb7   Thumb Code     4  stm32f2xx_dma.o(.text)
    DMA_GetCurrDataCounter                   0x08000fbb   Thumb Code     8  stm32f2xx_dma.o(.text)
    DMA_DoubleBufferModeConfig               0x08000fc3   Thumb Code    24  stm32f2xx_dma.o(.text)
    DMA_DoubleBufferModeCmd                  0x08000fdb   Thumb Code    22  stm32f2xx_dma.o(.text)
    DMA_MemoryTargetConfig                   0x08000ff1   Thumb Code    10  stm32f2xx_dma.o(.text)
    DMA_GetCurrentMemoryTarget               0x08000ffb   Thumb Code    20  stm32f2xx_dma.o(.text)
    DMA_GetCmdStatus                         0x0800100f   Thumb Code    20  stm32f2xx_dma.o(.text)
    DMA_GetFIFOStatus                        0x08001023   Thumb Code    12  stm32f2xx_dma.o(.text)
    DMA_GetFlagStatus                        0x0800102f   Thumb Code    56  stm32f2xx_dma.o(.text)
    DMA_ClearFlag                            0x08001067   Thumb Code    40  stm32f2xx_dma.o(.text)
    DMA_ITConfig                             0x0800108f   Thumb Code    58  stm32f2xx_dma.o(.text)
    DMA_GetITStatus                          0x080010c9   Thumb Code    84  stm32f2xx_dma.o(.text)
    DMA_ClearITPendingBit                    0x0800111d   Thumb Code    40  stm32f2xx_dma.o(.text)
    ADC_DeInit                               0x08001165   Thumb Code    22  stm32f2xx_adc.o(.text)
    ADC_Init                                 0x0800117b   Thumb Code    74  stm32f2xx_adc.o(.text)
    ADC_StructInit                           0x080011c5   Thumb Code    20  stm32f2xx_adc.o(.text)
    ADC_CommonInit                           0x080011d9   Thumb Code    34  stm32f2xx_adc.o(.text)
    ADC_CommonStructInit                     0x080011fb   Thumb Code    12  stm32f2xx_adc.o(.text)
    ADC_Cmd                                  0x08001207   Thumb Code    22  stm32f2xx_adc.o(.text)
    ADC_AnalogWatchdogCmd                    0x0800121d   Thumb Code    16  stm32f2xx_adc.o(.text)
    ADC_AnalogWatchdogThresholdsConfig       0x0800122d   Thumb Code     6  stm32f2xx_adc.o(.text)
    ADC_AnalogWatchdogSingleChannelConfig    0x08001233   Thumb Code    16  stm32f2xx_adc.o(.text)
    ADC_TempSensorVrefintCmd                 0x08001243   Thumb Code    34  stm32f2xx_adc.o(.text)
    ADC_VBATCmd                              0x08001265   Thumb Code    34  stm32f2xx_adc.o(.text)
    ADC_RegularChannelConfig                 0x08001287   Thumb Code   184  stm32f2xx_adc.o(.text)
    ADC_SoftwareStartConv                    0x0800133f   Thumb Code    10  stm32f2xx_adc.o(.text)
    ADC_GetSoftwareStartConvStatus           0x08001349   Thumb Code    20  stm32f2xx_adc.o(.text)
    ADC_EOCOnEachRegularChannelCmd           0x0800135d   Thumb Code    22  stm32f2xx_adc.o(.text)
    ADC_ContinuousModeCmd                    0x08001373   Thumb Code    22  stm32f2xx_adc.o(.text)
    ADC_DiscModeChannelCountConfig           0x08001389   Thumb Code    24  stm32f2xx_adc.o(.text)
    ADC_DiscModeCmd                          0x080013a1   Thumb Code    22  stm32f2xx_adc.o(.text)
    ADC_GetConversionValue                   0x080013b7   Thumb Code     8  stm32f2xx_adc.o(.text)
    ADC_GetMultiModeConversionValue          0x080013bf   Thumb Code     8  stm32f2xx_adc.o(.text)
    ADC_DMACmd                               0x080013c7   Thumb Code    22  stm32f2xx_adc.o(.text)
    ADC_DMARequestAfterLastTransferCmd       0x080013dd   Thumb Code    22  stm32f2xx_adc.o(.text)
    ADC_MultiModeDMARequestAfterLastTransferCmd 0x080013f3   Thumb Code    34  stm32f2xx_adc.o(.text)
    ADC_InjectedChannelConfig                0x08001415   Thumb Code   130  stm32f2xx_adc.o(.text)
    ADC_InjectedSequencerLengthConfig        0x08001497   Thumb Code    24  stm32f2xx_adc.o(.text)
    ADC_SetInjectedOffset                    0x080014af   Thumb Code    20  stm32f2xx_adc.o(.text)
    ADC_ExternalTrigInjectedConvConfig       0x080014c3   Thumb Code    16  stm32f2xx_adc.o(.text)
    ADC_ExternalTrigInjectedConvEdgeConfig   0x080014d3   Thumb Code    16  stm32f2xx_adc.o(.text)
    ADC_SoftwareStartInjectedConv            0x080014e3   Thumb Code    10  stm32f2xx_adc.o(.text)
    ADC_GetSoftwareStartInjectedConvCmdStatus 0x080014ed   Thumb Code    20  stm32f2xx_adc.o(.text)
    ADC_AutoInjectedConvCmd                  0x08001501   Thumb Code    22  stm32f2xx_adc.o(.text)
    ADC_InjectedDiscModeCmd                  0x08001517   Thumb Code    22  stm32f2xx_adc.o(.text)
    ADC_GetInjectedConversionValue           0x0800152d   Thumb Code    28  stm32f2xx_adc.o(.text)
    ADC_ITConfig                             0x08001549   Thumb Code    56  stm32f2xx_adc.o(.text)
    ADC_GetFlagStatus                        0x08001581   Thumb Code    18  stm32f2xx_adc.o(.text)
    ADC_ClearFlag                            0x08001593   Thumb Code     6  stm32f2xx_adc.o(.text)
    ADC_GetITStatus                          0x08001599   Thumb Code    38  stm32f2xx_adc.o(.text)
    ADC_ClearITPendingBit                    0x080015bf   Thumb Code    10  stm32f2xx_adc.o(.text)
    NVIC_PriorityGroupConfig                 0x080015c9   Thumb Code    10  misc.o(.text)
    NVIC_Init                                0x080015d3   Thumb Code   106  misc.o(.text)
    NVIC_SetVectorTable                      0x0800163d   Thumb Code    14  misc.o(.text)
    NVIC_SystemLPConfig                      0x0800164b   Thumb Code    34  misc.o(.text)
    SysTick_CLKSourceConfig                  0x0800166d   Thumb Code    40  misc.o(.text)
    FSMC_NORSRAMDeInit                       0x080016a9   Thumb Code    54  stm32f2xx_fsmc.o(.text)
    FSMC_NORSRAMInit                         0x080016df   Thumb Code   230  stm32f2xx_fsmc.o(.text)
    FSMC_NORSRAMStructInit                   0x080017c5   Thumb Code   114  stm32f2xx_fsmc.o(.text)
    FSMC_NORSRAMCmd                          0x08001837   Thumb Code    46  stm32f2xx_fsmc.o(.text)
    FSMC_NANDDeInit                          0x08001865   Thumb Code    62  stm32f2xx_fsmc.o(.text)
    FSMC_NANDInit                            0x080018a3   Thumb Code   132  stm32f2xx_fsmc.o(.text)
    FSMC_NANDStructInit                      0x08001927   Thumb Code    54  stm32f2xx_fsmc.o(.text)
    FSMC_NANDCmd                             0x0800195d   Thumb Code    86  stm32f2xx_fsmc.o(.text)
    FSMC_NANDECCCmd                          0x080019b3   Thumb Code    86  stm32f2xx_fsmc.o(.text)
    FSMC_GetECC                              0x08001a09   Thumb Code    24  stm32f2xx_fsmc.o(.text)
    FSMC_PCCARDDeInit                        0x08001a21   Thumb Code    36  stm32f2xx_fsmc.o(.text)
    FSMC_PCCARDInit                          0x08001a45   Thumb Code   130  stm32f2xx_fsmc.o(.text)
    FSMC_PCCARDStructInit                    0x08001ac7   Thumb Code    60  stm32f2xx_fsmc.o(.text)
    FSMC_PCCARDCmd                           0x08001b03   Thumb Code    44  stm32f2xx_fsmc.o(.text)
    FSMC_ITConfig                            0x08001b2f   Thumb Code   128  stm32f2xx_fsmc.o(.text)
    FSMC_GetFlagStatus                       0x08001baf   Thumb Code    54  stm32f2xx_fsmc.o(.text)
    FSMC_ClearFlag                           0x08001be5   Thumb Code    62  stm32f2xx_fsmc.o(.text)
    FSMC_GetITStatus                         0x08001c23   Thumb Code    72  stm32f2xx_fsmc.o(.text)
    FSMC_ClearITPendingBit                   0x08001c6b   Thumb Code    66  stm32f2xx_fsmc.o(.text)
    SDIO_DeInit                              0x08001cb1   Thumb Code    22  stm32f2xx_sdio.o(.text)
    SDIO_Init                                0x08001cc7   Thumb Code    42  stm32f2xx_sdio.o(.text)
    SDIO_StructInit                          0x08001cf1   Thumb Code    16  stm32f2xx_sdio.o(.text)
    SDIO_ClockCmd                            0x08001d01   Thumb Code     6  stm32f2xx_sdio.o(.text)
    SDIO_SetPowerState                       0x08001d07   Thumb Code    26  stm32f2xx_sdio.o(.text)
    SDIO_GetPowerState                       0x08001d21   Thumb Code    12  stm32f2xx_sdio.o(.text)
    SDIO_SendCommand                         0x08001d2d   Thumb Code    42  stm32f2xx_sdio.o(.text)
    SDIO_CmdStructInit                       0x08001d57   Thumb Code    14  stm32f2xx_sdio.o(.text)
    SDIO_GetCommandResponse                  0x08001d65   Thumb Code    10  stm32f2xx_sdio.o(.text)
    SDIO_GetResponse                         0x08001d6f   Thumb Code    22  stm32f2xx_sdio.o(.text)
    SDIO_DataConfig                          0x08001d85   Thumb Code    48  stm32f2xx_sdio.o(.text)
    SDIO_DataStructInit                      0x08001db5   Thumb Code    20  stm32f2xx_sdio.o(.text)
    SDIO_GetDataCounter                      0x08001dc9   Thumb Code     8  stm32f2xx_sdio.o(.text)
    SDIO_ReadData                            0x08001dd1   Thumb Code     8  stm32f2xx_sdio.o(.text)
    SDIO_WriteData                           0x08001dd9   Thumb Code     8  stm32f2xx_sdio.o(.text)
    SDIO_GetFIFOCount                        0x08001de1   Thumb Code     8  stm32f2xx_sdio.o(.text)
    SDIO_StartSDIOReadWait                   0x08001de9   Thumb Code     6  stm32f2xx_sdio.o(.text)
    SDIO_StopSDIOReadWait                    0x08001def   Thumb Code     8  stm32f2xx_sdio.o(.text)
    SDIO_SetSDIOReadWaitMode                 0x08001df7   Thumb Code     8  stm32f2xx_sdio.o(.text)
    SDIO_SetSDIOOperation                    0x08001dff   Thumb Code     8  stm32f2xx_sdio.o(.text)
    SDIO_SendSDIOSuspendCmd                  0x08001e07   Thumb Code     6  stm32f2xx_sdio.o(.text)
    SDIO_CommandCompletionCmd                0x08001e0d   Thumb Code     8  stm32f2xx_sdio.o(.text)
    SDIO_CEATAITCmd                          0x08001e15   Thumb Code    12  stm32f2xx_sdio.o(.text)
    SDIO_SendCEATACmd                        0x08001e21   Thumb Code     8  stm32f2xx_sdio.o(.text)
    SDIO_DMACmd                              0x08001e29   Thumb Code     8  stm32f2xx_sdio.o(.text)
    SDIO_ITConfig                            0x08001e31   Thumb Code    34  stm32f2xx_sdio.o(.text)
    SDIO_GetFlagStatus                       0x08001e53   Thumb Code    22  stm32f2xx_sdio.o(.text)
    SDIO_ClearFlag                           0x08001e69   Thumb Code     8  stm32f2xx_sdio.o(.text)
    SDIO_GetITStatus                         0x08001e71   Thumb Code    22  stm32f2xx_sdio.o(.text)
    SDIO_ClearITPendingBit                   0x08001e87   Thumb Code     8  stm32f2xx_sdio.o(.text)
    TIM_DeInit                               0x08001ea1   Thumb Code   346  stm32f2xx_tim.o(.text)
    TIM_TimeBaseInit                         0x08001ffb   Thumb Code   104  stm32f2xx_tim.o(.text)
    TIM_TimeBaseStructInit                   0x08002063   Thumb Code    18  stm32f2xx_tim.o(.text)
    TIM_PrescalerConfig                      0x08002075   Thumb Code     6  stm32f2xx_tim.o(.text)
    TIM_CounterModeConfig                    0x0800207b   Thumb Code    18  stm32f2xx_tim.o(.text)
    TIM_SetCounter                           0x0800208d   Thumb Code     4  stm32f2xx_tim.o(.text)
    TIM_SetAutoreload                        0x08002091   Thumb Code     4  stm32f2xx_tim.o(.text)
    TIM_GetCounter                           0x08002095   Thumb Code     6  stm32f2xx_tim.o(.text)
    TIM_GetPrescaler                         0x0800209b   Thumb Code     6  stm32f2xx_tim.o(.text)
    TIM_UpdateDisableConfig                  0x080020a1   Thumb Code    24  stm32f2xx_tim.o(.text)
    TIM_UpdateRequestConfig                  0x080020b9   Thumb Code    24  stm32f2xx_tim.o(.text)
    TIM_ARRPreloadConfig                     0x080020d1   Thumb Code    24  stm32f2xx_tim.o(.text)
    TIM_SelectOnePulseMode                   0x080020e9   Thumb Code    18  stm32f2xx_tim.o(.text)
    TIM_SetClockDivision                     0x080020fb   Thumb Code    18  stm32f2xx_tim.o(.text)
    TIM_Cmd                                  0x0800210d   Thumb Code    24  stm32f2xx_tim.o(.text)
    TIM_OC1Init                              0x08002125   Thumb Code   114  stm32f2xx_tim.o(.text)
    TIM_OC2Init                              0x08002197   Thumb Code   154  stm32f2xx_tim.o(.text)
    TIM_OC3Init                              0x08002231   Thumb Code   204  stm32f2xx_tim.o(.text)
    TIM_OC4Init                              0x080022fd   Thumb Code   112  stm32f2xx_tim.o(.text)
    TIM_OCStructInit                         0x0800236d   Thumb Code    20  stm32f2xx_tim.o(.text)
    TIM_SelectOCxM                           0x08002381   Thumb Code    86  stm32f2xx_tim.o(.text)
    TIM_SetCompare1                          0x080023d7   Thumb Code     4  stm32f2xx_tim.o(.text)
    TIM_SetCompare2                          0x080023db   Thumb Code     4  stm32f2xx_tim.o(.text)
    TIM_SetCompare3                          0x080023df   Thumb Code     4  stm32f2xx_tim.o(.text)
    TIM_SetCompare4                          0x080023e3   Thumb Code     4  stm32f2xx_tim.o(.text)
    TIM_ForcedOC1Config                      0x080023e7   Thumb Code    18  stm32f2xx_tim.o(.text)
    TIM_ForcedOC2Config                      0x080023f9   Thumb Code    26  stm32f2xx_tim.o(.text)
    TIM_ForcedOC3Config                      0x08002413   Thumb Code    18  stm32f2xx_tim.o(.text)
    TIM_ForcedOC4Config                      0x08002425   Thumb Code    26  stm32f2xx_tim.o(.text)
    TIM_OC1PreloadConfig                     0x0800243f   Thumb Code    18  stm32f2xx_tim.o(.text)
    TIM_OC2PreloadConfig                     0x08002451   Thumb Code    26  stm32f2xx_tim.o(.text)
    TIM_OC3PreloadConfig                     0x0800246b   Thumb Code    18  stm32f2xx_tim.o(.text)
    TIM_OC4PreloadConfig                     0x0800247d   Thumb Code    26  stm32f2xx_tim.o(.text)
    TIM_OC1FastConfig                        0x08002497   Thumb Code    18  stm32f2xx_tim.o(.text)
    TIM_OC2FastConfig                        0x080024a9   Thumb Code    26  stm32f2xx_tim.o(.text)
    TIM_OC3FastConfig                        0x080024c3   Thumb Code    18  stm32f2xx_tim.o(.text)
    TIM_OC4FastConfig                        0x080024d5   Thumb Code    26  stm32f2xx_tim.o(.text)
    TIM_ClearOC1Ref                          0x080024ef   Thumb Code    18  stm32f2xx_tim.o(.text)
    TIM_ClearOC2Ref                          0x08002501   Thumb Code    24  stm32f2xx_tim.o(.text)
    TIM_ClearOC3Ref                          0x08002519   Thumb Code    18  stm32f2xx_tim.o(.text)
    TIM_ClearOC4Ref                          0x0800252b   Thumb Code    24  stm32f2xx_tim.o(.text)
    TIM_OC1PolarityConfig                    0x08002543   Thumb Code    18  stm32f2xx_tim.o(.text)
    TIM_OC1NPolarityConfig                   0x08002555   Thumb Code    18  stm32f2xx_tim.o(.text)
    TIM_OC2PolarityConfig                    0x08002567   Thumb Code    26  stm32f2xx_tim.o(.text)
    TIM_OC2NPolarityConfig                   0x08002581   Thumb Code    26  stm32f2xx_tim.o(.text)
    TIM_OC3PolarityConfig                    0x0800259b   Thumb Code    26  stm32f2xx_tim.o(.text)
    TIM_OC3NPolarityConfig                   0x080025b5   Thumb Code    26  stm32f2xx_tim.o(.text)
    TIM_OC4PolarityConfig                    0x080025cf   Thumb Code    26  stm32f2xx_tim.o(.text)
    TIM_CCxCmd                               0x080025e9   Thumb Code    30  stm32f2xx_tim.o(.text)
    TIM_CCxNCmd                              0x08002607   Thumb Code    30  stm32f2xx_tim.o(.text)
    TIM_SetIC4Prescaler                      0x08002625   Thumb Code    26  stm32f2xx_tim.o(.text)
    TIM_SetIC3Prescaler                      0x0800268f   Thumb Code    18  stm32f2xx_tim.o(.text)
    TIM_SetIC2Prescaler                      0x080026e9   Thumb Code    26  stm32f2xx_tim.o(.text)
    TIM_SetIC1Prescaler                      0x0800275d   Thumb Code    18  stm32f2xx_tim.o(.text)
    TIM_ICInit                               0x080027a9   Thumb Code   110  stm32f2xx_tim.o(.text)
    TIM_ICStructInit                         0x08002817   Thumb Code    18  stm32f2xx_tim.o(.text)
    TIM_PWMIConfig                           0x08002829   Thumb Code   124  stm32f2xx_tim.o(.text)
    TIM_GetCapture1                          0x080028a5   Thumb Code     6  stm32f2xx_tim.o(.text)
    TIM_GetCapture2                          0x080028ab   Thumb Code     6  stm32f2xx_tim.o(.text)
    TIM_GetCapture3                          0x080028b1   Thumb Code     6  stm32f2xx_tim.o(.text)
    TIM_GetCapture4                          0x080028b7   Thumb Code     6  stm32f2xx_tim.o(.text)
    TIM_BDTRConfig                           0x080028bd   Thumb Code    32  stm32f2xx_tim.o(.text)
    TIM_BDTRStructInit                       0x080028dd   Thumb Code    18  stm32f2xx_tim.o(.text)
    TIM_CtrlPWMOutputs                       0x080028ef   Thumb Code    30  stm32f2xx_tim.o(.text)
    TIM_SelectCOM                            0x0800290d   Thumb Code    24  stm32f2xx_tim.o(.text)
    TIM_CCPreloadControl                     0x08002925   Thumb Code    24  stm32f2xx_tim.o(.text)
    TIM_ITConfig                             0x0800293d   Thumb Code    18  stm32f2xx_tim.o(.text)
    TIM_GenerateEvent                        0x0800294f   Thumb Code     4  stm32f2xx_tim.o(.text)
    TIM_GetFlagStatus                        0x08002953   Thumb Code    18  stm32f2xx_tim.o(.text)
    TIM_ClearFlag                            0x08002965   Thumb Code     6  stm32f2xx_tim.o(.text)
    TIM_GetITStatus                          0x0800296b   Thumb Code    34  stm32f2xx_tim.o(.text)
    TIM_ClearITPendingBit                    0x0800298d   Thumb Code     6  stm32f2xx_tim.o(.text)
    TIM_DMAConfig                            0x08002993   Thumb Code    10  stm32f2xx_tim.o(.text)
    TIM_DMACmd                               0x0800299d   Thumb Code    18  stm32f2xx_tim.o(.text)
    TIM_SelectCCDMA                          0x080029af   Thumb Code    24  stm32f2xx_tim.o(.text)
    TIM_InternalClockConfig                  0x080029c7   Thumb Code    12  stm32f2xx_tim.o(.text)
    TIM_SelectInputTrigger                   0x080029d3   Thumb Code    18  stm32f2xx_tim.o(.text)
    TIM_ITRxExternalClockConfig              0x080029e5   Thumb Code    24  stm32f2xx_tim.o(.text)
    TIM_TIxExternalClockConfig               0x080029fd   Thumb Code    62  stm32f2xx_tim.o(.text)
    TIM_ETRConfig                            0x08002a3b   Thumb Code    28  stm32f2xx_tim.o(.text)
    TIM_ETRClockMode1Config                  0x08002a57   Thumb Code    54  stm32f2xx_tim.o(.text)
    TIM_ETRClockMode2Config                  0x08002a8d   Thumb Code    32  stm32f2xx_tim.o(.text)
    TIM_SelectOutputTrigger                  0x08002aad   Thumb Code    18  stm32f2xx_tim.o(.text)
    TIM_SelectSlaveMode                      0x08002abf   Thumb Code    18  stm32f2xx_tim.o(.text)
    TIM_SelectMasterSlaveMode                0x08002ad1   Thumb Code    18  stm32f2xx_tim.o(.text)
    TIM_EncoderInterfaceConfig               0x08002ae3   Thumb Code    66  stm32f2xx_tim.o(.text)
    TIM_SelectHallSensor                     0x08002b25   Thumb Code    24  stm32f2xx_tim.o(.text)
    TIM_RemapConfig                          0x08002b3d   Thumb Code     6  stm32f2xx_tim.o(.text)
    SystemInit                               0x08002c05   Thumb Code    74  system_stm32f2xx.o(.text)
    SystemCoreClockUpdate                    0x08002c4f   Thumb Code   174  system_stm32f2xx.o(.text)
    main                                     0x08002d25   Thumb Code   556  main.o(.text)
    task_list                                0x080030bd   Thumb Code   284  taskpolling.o(.text)
    NMI_Handler                              0x080031fd   Thumb Code     2  stm32f2xx_it.o(.text)
    HardFault_Handler                        0x080031ff   Thumb Code     4  stm32f2xx_it.o(.text)
    MemManage_Handler                        0x08003203   Thumb Code     4  stm32f2xx_it.o(.text)
    BusFault_Handler                         0x08003207   Thumb Code     4  stm32f2xx_it.o(.text)
    UsageFault_Handler                       0x0800320b   Thumb Code     4  stm32f2xx_it.o(.text)
    SVC_Handler                              0x0800320f   Thumb Code     2  stm32f2xx_it.o(.text)
    DebugMon_Handler                         0x08003211   Thumb Code     2  stm32f2xx_it.o(.text)
    PendSV_Handler                           0x08003213   Thumb Code     2  stm32f2xx_it.o(.text)
    SysTick_Handler                          0x08003215   Thumb Code     8  stm32f2xx_it.o(.text)
    USART1_IRQHandler                        0x0800321d   Thumb Code     8  stm32f2xx_it.o(.text)
    UART4_IRQHandler                         0x08003225   Thumb Code     8  stm32f2xx_it.o(.text)
    TIM2_IRQHandler                          0x0800322d   Thumb Code     8  stm32f2xx_it.o(.text)
    TIM3_IRQHandler                          0x08003235   Thumb Code     8  stm32f2xx_it.o(.text)
    TIM4_IRQHandler                          0x0800323d   Thumb Code     8  stm32f2xx_it.o(.text)
    SDIO_IRQHandler                          0x08003245   Thumb Code     8  stm32f2xx_it.o(.text)
    DMA2_Stream3_IRQHandler                  0x0800324d   Thumb Code     8  stm32f2xx_it.o(.text)
    SysTick_Init                             0x08003255   Thumb Code   122  systick.o(.text)
    Delay_us                                 0x080032cf   Thumb Code    52  systick.o(.text)
    Delay_ms                                 0x08003303   Thumb Code    26  systick.o(.text)
    Delay_sec                                0x0800331d   Thumb Code    26  systick.o(.text)
    Timer_Decrement                          0x08003337   Thumb Code    18  systick.o(.text)
    NVIC_Config                              0x08003399   Thumb Code   192  board_conf.o(.text)
    Board_Init                               0x08003459   Thumb Code   390  board_conf.o(.text)
    USART1_Config                            0x08003905   Thumb Code   168  usart.o(.text)
    UART4_Config                             0x080039ad   Thumb Code   162  usart.o(.text)
    fputc                                    0x08003a4f   Thumb Code    36  usart.o(.text)
    PC_Data_Reciever                         0x08003a73   Thumb Code   232  usart.o(.text)
    MSE_Data_Reciever                        0x08003b5b   Thumb Code    96  usart.o(.text)
    USART1_RXD                               0x08003bbb   Thumb Code    24  usart.o(.text)
    UART4_RXD                                0x08003bd3   Thumb Code    24  usart.o(.text)
    USART_EventProcess                       0x08003beb   Thumb Code  5340  usart.o(.text)
    USART_printf                             0x08005129   Thumb Code   948  usart.o(.text)
    TIM2_Config                              0x080054dd   Thumb Code    82  timer.o(.text)
    TIM3_Config                              0x0800552f   Thumb Code    80  timer.o(.text)
    TIM4_Config                              0x0800557f   Thumb Code    82  timer.o(.text)
    TIM2_EventProcess                        0x080055d1   Thumb Code    28  timer.o(.text)
    TIM3_EventProcess                        0x080055ed   Thumb Code    40  timer.o(.text)
    TIM4_EventProcess                        0x08005615   Thumb Code    44  timer.o(.text)
    Admesy_Init                              0x08005679   Thumb Code   586  admesy.o(.text)
    Meas_Flicker                             0x080058c3   Thumb Code   140  admesy.o(.text)
    Meas_JEITA                               0x0800594f   Thumb Code   238  admesy.o(.text)
    Meas_CCT_MSE                             0x08005a3d   Thumb Code   432  admesy.o(.text)
    Meas_XYZ                                 0x08005bed   Thumb Code   110  admesy.o(.text)
    Meas_Yxy                                 0x08005c5b   Thumb Code   258  admesy.o(.text)
    Meas_CCT                                 0x08005d5d   Thumb Code   238  admesy.o(.text)
    Meas_Yuv                                 0x08005e4b   Thumb Code   654  admesy.o(.text)
    fft                                      0x080060d9   Thumb Code   516  admesy_flicker.o(.text)
    fftold                                   0x080062dd   Thumb Code   636  admesy_flicker.o(.text)
    JEITA_weighing                           0x08006559   Thumb Code   200  admesy_flicker.o(.text)
    calc_JEITA_flicker                       0x08006621   Thumb Code   302  admesy_flicker.o(.text)
    calc_VESA_flicker                        0x0800674f   Thumb Code   320  admesy_flicker.o(.text)
    calc_flicker_mm                          0x0800688f   Thumb Code   308  admesy_flicker.o(.text)
    calc_flicker_rms                         0x080069c3   Thumb Code   262  admesy_flicker.o(.text)
    dft                                      0x08006ac9   Thumb Code   320  admesy_flicker.o(.text)
    idft                                     0x08006c09   Thumb Code   372  admesy_flicker.o(.text)
    kiss_fft_alloc                           0x08007aaf   Thumb Code   218  kiss_fft.o(.text)
    kiss_fft_stride                          0x08007b89   Thumb Code    90  kiss_fft.o(.text)
    kiss_fft                                 0x08007be3   Thumb Code    22  kiss_fft.o(.text)
    kiss_fft_cleanup                         0x08007bf9   Thumb Code     2  kiss_fft.o(.text)
    kiss_fft_next_fast_size                  0x08007bfb   Thumb Code    94  kiss_fft.o(.text)
    ADC3_Config                              0x08007c65   Thumb Code   250  adc.o(.text)
    BubbleSort                               0x08007d5f   Thumb Code    66  adc.o(.text)
    Get_ADC3_Voltage                         0x08007da1   Thumb Code    38  adc.o(.text)
    GetResValue                              0x08007dc7   Thumb Code   288  adc.o(.text)
    I2C_Start                                0x08007f95   Thumb Code    64  i2c.o(.text)
    I2C_Stop                                 0x08007fd5   Thumb Code    64  i2c.o(.text)
    I2C_Ack                                  0x08008015   Thumb Code    64  i2c.o(.text)
    I2C_Uak                                  0x08008055   Thumb Code    52  i2c.o(.text)
    I2C_Check_Ack                            0x08008089   Thumb Code   182  i2c.o(.text)
    I2C_Tx                                   0x0800813f   Thumb Code    96  i2c.o(.text)
    I2C_Rx                                   0x0800819f   Thumb Code   178  i2c.o(.text)
    I2C_Write                                0x08008251   Thumb Code    26  i2c.o(.text)
    I2C_Read_Ack                             0x0800826b   Thumb Code    16  i2c.o(.text)
    I2C_Read_Uak                             0x0800827b   Thumb Code    16  i2c.o(.text)
    I2C_Write_Byte                           0x0800828b   Thumb Code   102  i2c.o(.text)
    I2C_Write_Byte16                         0x080082f1   Thumb Code   120  i2c.o(.text)
    I2C_Read_Byte                            0x08008369   Thumb Code   138  i2c.o(.text)
    I2C_Read_Byte16                          0x080083f3   Thumb Code   136  i2c.o(.text)
    I2C_Sequential_Write                     0x0800847b   Thumb Code   144  i2c.o(.text)
    I2C_Sequential_Write16                   0x0800850b   Thumb Code   162  i2c.o(.text)
    I2C_Sequential_Read                      0x080085ad   Thumb Code   146  i2c.o(.text)
    I2C_Sequential_Read16                    0x0800863f   Thumb Code   166  i2c.o(.text)
    I2C_Check_Addr                           0x080086e5   Thumb Code    56  i2c.o(.text)
    POWER_EN_Config                          0x08008721   Thumb Code   112  power.o(.text)
    POWER_I2C_Config                         0x08008791   Thumb Code    68  power.o(.text)
    POWER_I2C_SETTING                        0x080087d5   Thumb Code   328  power.o(.text)
    LCMPower_Init                            0x0800891d   Thumb Code    40  power.o(.text)
    LCMPower_ON                              0x08008945   Thumb Code    50  power.o(.text)
    LCMPower_OFF                             0x08008977   Thumb Code    62  power.o(.text)
    LCMPower_ON1                             0x080089b5   Thumb Code    50  power.o(.text)
    LCMPower_OFF1                            0x080089e7   Thumb Code    62  power.o(.text)
    Check_ADCADDR                            0x08008b35   Thumb Code    62  digital_sensor.o(.text)
    DSENSOR_I2C_Config                       0x08008b73   Thumb Code    72  digital_sensor.o(.text)
    I2C_ReadSensor                           0x08008bbb   Thumb Code    48  digital_sensor.o(.text)
    DSENSOR_I2C_GetFlicker                   0x08008beb   Thumb Code   206  digital_sensor.o(.text)
    DSENSOR_Test                             0x08008cb9   Thumb Code    88  digital_sensor.o(.text)
    EEPROM_I2C_Config                        0x08008db9   Thumb Code    88  eeprom.o(.text)
    EEPROM_I2C_Write                         0x08008e11   Thumb Code   170  eeprom.o(.text)
    EEPROM_I2C_Read                          0x08008ebb   Thumb Code    66  eeprom.o(.text)
    EEPROM_WR_Verify                         0x08008efd   Thumb Code   114  eeprom.o(.text)
    Get_Test_Mode                            0x08008f6f   Thumb Code    14  eeprom.o(.text)
    Set_Test_Mode                            0x08008f7d   Thumb Code    14  eeprom.o(.text)
    Disp_Test_Mode                           0x08008f8b   Thumb Code   160  eeprom.o(.text)
    LED_Config                               0x0800917d   Thumb Code    60  led.o(.text)
    LED_ON                                   0x080091b9   Thumb Code    22  led.o(.text)
    LED_OFF                                  0x080091cf   Thumb Code    22  led.o(.text)
    LED_Toggle                               0x080091e5   Thumb Code    22  led.o(.text)
    KEY_Config                               0x0800920d   Thumb Code    70  key.o(.text)
    KEY_GetState                             0x08009253   Thumb Code   218  key.o(.text)
    KEY_SLEEPIN                              0x0800932d   Thumb Code    46  key.o(.text)
    KeyProc                                  0x0800935b   Thumb Code   484  key.o(.text)
    AutoSwitchPattern                        0x0800953f   Thumb Code   116  key.o(.text)
    CTP_GetState                             0x080095b3   Thumb Code   548  key.o(.text)
    CTPProc                                  0x080097d7   Thumb Code   190  key.o(.text)
    SSD2828_SPI_Config                       0x08009925   Thumb Code   186  ssd2828.o(.text)
    MIPI_Reset                               0x080099df   Thumb Code    38  ssd2828.o(.text)
    SPI3Read                                 0x08009a05   Thumb Code   132  ssd2828.o(.text)
    SPI3Write                                0x08009a89   Thumb Code    80  ssd2828.o(.text)
    WriteCMD2SSD                             0x08009ad9   Thumb Code    86  ssd2828.o(.text)
    WriteDATA2SSD                            0x08009b2f   Thumb Code    88  ssd2828.o(.text)
    ReadSSDReg                               0x08009b87   Thumb Code    58  ssd2828.o(.text)
    IC_Init                                  0x08009bc1   Thumb Code   540  ssd2828.o(.text)
    WriteSSDReg                              0x08009ddd   Thumb Code    34  ssd2828.o(.text)
    WriteDriverReg                           0x08009dff   Thumb Code    62  ssd2828.o(.text)
    ReadDriverReg                            0x08009e3d   Thumb Code   232  ssd2828.o(.text)
    MIPI_DCS_Write                           0x08009f25   Thumb Code    84  ssd2828.o(.text)
    MIPI_GEN_Write                           0x08009f79   Thumb Code    84  ssd2828.o(.text)
    MIPI_DCS_Read                            0x08009fcd   Thumb Code    50  ssd2828.o(.text)
    MIPI_GEN_Read                            0x08009fff   Thumb Code    60  ssd2828.o(.text)
    SSD2828_Init                             0x0800a03b   Thumb Code    20  ssd2828.o(.text)
    FPGA_FSMC_Config                         0x0800a1a5   Thumb Code   318  fpga.o(.text)
    FPGA_SPI_Config                          0x0800a2e3   Thumb Code   168  fpga.o(.text)
    FPGA_SPI3Write                           0x0800a38b   Thumb Code    82  fpga.o(.text)
    FPGA_SPI3Read                            0x0800a3dd   Thumb Code    98  fpga.o(.text)
    FPGA_Reset                               0x0800a43f   Thumb Code    36  fpga.o(.text)
    FPGA_Porch_Set                           0x0800a463   Thumb Code   262  fpga.o(.text)
    FPGA_Display_Set                         0x0800a569   Thumb Code   198  fpga.o(.text)
    FPGA_Info_Set                            0x0800a62f   Thumb Code    70  fpga.o(.text)
    FPGA_Project_Set                         0x0800a675   Thumb Code    70  fpga.o(.text)
    FPGA_Project_Check                       0x0800a6bb   Thumb Code    98  fpga.o(.text)
    FPGA_Version_Set                         0x0800a71d   Thumb Code    70  fpga.o(.text)
    Version_Set                              0x0800a763   Thumb Code   190  fpga.o(.text)
    Project_Info_Upload                      0x0800a821   Thumb Code   178  fpga.o(.text)
    FPGA_Info_Visible                        0x0800a8d3   Thumb Code   118  fpga.o(.text)
    FPGA_DisPattern                          0x0800a949   Thumb Code  1268  fpga.o(.text)
    FPGA_DisPicture                          0x0800ae3d   Thumb Code    44  fpga.o(.text)
    FPGA_PIC_WR_CFG                          0x0800ae69   Thumb Code   102  fpga.o(.text)
    FPGA_INIT_END_INFO                       0x0800aecf   Thumb Code    18  fpga.o(.text)
    FPGA_PORT_MAP                            0x0800aee1   Thumb Code    32  fpga.o(.text)
    FPGA_Initial                             0x0800af01   Thumb Code   148  fpga.o(.text)
    LCD_RST_Config                           0x0800b061   Thumb Code    52  lcd.o(.text)
    DriverIC_Reset                           0x0800b095   Thumb Code    42  lcd.o(.text)
    LCD_SoftReset                            0x0800b0bf   Thumb Code    80  lcd.o(.text)
    LCD_SleepIn                              0x0800b10f   Thumb Code    96  lcd.o(.text)
    LCD_SleepOut                             0x0800b16f   Thumb Code    96  lcd.o(.text)
    LCD_DisplayOff                           0x0800b1cf   Thumb Code    86  lcd.o(.text)
    LCD_DisplayOn                            0x0800b225   Thumb Code    86  lcd.o(.text)
    LCD_LPMode                               0x0800b27b   Thumb Code    58  lcd.o(.text)
    LCD_HSMode                               0x0800b2b5   Thumb Code    58  lcd.o(.text)
    LCD_VideoMode_ON                         0x0800b2ef   Thumb Code    58  lcd.o(.text)
    LCD_VideoMode_OFF                        0x0800b329   Thumb Code    58  lcd.o(.text)
    MIPI_SleepMode_ON                        0x0800b363   Thumb Code    58  lcd.o(.text)
    MIPI_SleepMode_OFF                       0x0800b39d   Thumb Code    58  lcd.o(.text)
    LCD_PWM                                  0x0800b3d7   Thumb Code    94  lcd.o(.text)
    LCD_LitSquence                           0x0800b435   Thumb Code    24  lcd.o(.text)
    LEDA_DIM                                 0x0800b44d   Thumb Code    10  lcd.o(.text)
    ARM_PWM_Control                          0x0800b457   Thumb Code   606  lcd.o(.text)
    LCM_Init                                 0x0800b6b5   Thumb Code   692  lcd.o(.text)
    LCM_Reset                                0x0800b969   Thumb Code   110  lcd.o(.text)
    SD_DeInit                                0x0800bb41   Thumb Code   126  sdcard.o(.text)
    SD_EnableWideBusOperation                0x0800c05f   Thumb Code   140  sdcard.o(.text)
    SD_SelectDeselect                        0x0800c0eb   Thumb Code    48  sdcard.o(.text)
    SD_GetCardInfo                           0x0800c11b   Thumb Code   726  sdcard.o(.text)
    SD_InitializeCards                       0x0800c4e7   Thumb Code   294  sdcard.o(.text)
    SD_PowerON                               0x0800c6b5   Thumb Code   408  sdcard.o(.text)
    SD_Init                                  0x0800c84d   Thumb Code   114  sdcard.o(.text)
    SD_SendStatus                            0x0800c8bf   Thumb Code    64  sdcard.o(.text)
    SD_GetState                              0x0800c8ff   Thumb Code    26  sdcard.o(.text)
    SD_GetStatus                             0x0800c919   Thumb Code    30  sdcard.o(.text)
    SD_PowerOFF                              0x0800c937   Thumb Code    14  sdcard.o(.text)
    SD_SendSDStatus                          0x0800c945   Thumb Code   362  sdcard.o(.text)
    SD_GetCardStatus                         0x0800caaf   Thumb Code   156  sdcard.o(.text)
    SD_ReadBlock                             0x0800cb4b   Thumb Code   244  sdcard.o(.text)
    SD_ReadMultiBlocks                       0x0800cc3f   Thumb Code   216  sdcard.o(.text)
    SD_WaitReadOperation                     0x0800cd17   Thumb Code    56  sdcard.o(.text)
    SD_WriteBlock                            0x0800cd4f   Thumb Code   190  sdcard.o(.text)
    SD_WriteMultiBlocks                      0x0800ce0d   Thumb Code   294  sdcard.o(.text)
    SD_WaitWriteOperation                    0x0800cf33   Thumb Code    64  sdcard.o(.text)
    SD_GetTransferState                      0x0800cf73   Thumb Code    20  sdcard.o(.text)
    SD_StopTransfer                          0x0800cf87   Thumb Code    32  sdcard.o(.text)
    SD_Erase                                 0x0800d15b   Thumb Code   288  sdcard.o(.text)
    SD_ProcessIRQSrc                         0x0800d27b   Thumb Code    74  sdcard.o(.text)
    DMA_ProcessIRQSrc                        0x0800d2c5   Thumb Code    20  sdcard.o(.text)
    convert_from_bytes_to_power_of_two       0x0800d2d9   Thumb Code    18  sdcard.o(.text)
    SDDMA_VIC_Init                           0x0800d2eb   Thumb Code    68  sdcard.o(.text)
    Lcd_Load_bmp                             0x0800d379   Thumb Code   366  bsp_bmp.o(.text)
    PIC_Load_BMP                             0x0800d4e7   Thumb Code   360  bsp_bmp.o(.text)
    PIC_Load_BMP_ET                          0x0800d64f   Thumb Code   252  bsp_bmp.o(.text)
    SD_Write_Str2File                        0x0800d74b   Thumb Code   428  bsp_bmp.o(.text)
    TEST_Config_ON                           0x0800d915   Thumb Code   282  lcd_test.o(.text)
    TEST_Config_CTP                          0x0800da2f   Thumb Code   108  lcd_test.o(.text)
    TEST_Config_OFF                          0x0800da9b   Thumb Code   130  lcd_test.o(.text)
    Current_Check_Config                     0x0800db1d   Thumb Code   108  lcd_test.o(.text)
    CTP_Start                                0x0800db89   Thumb Code    38  lcd_test.o(.text)
    Differ2_Detect                           0x0800dbaf   Thumb Code     2  lcd_test.o(.text)
    TE_Detect                                0x0800dbb1   Thumb Code     2  lcd_test.o(.text)
    ARM_PWM_Detect                           0x0800dbb3   Thumb Code    98  lcd_test.o(.text)
    PWM_Detect                               0x0800dc15   Thumb Code     2  lcd_test.o(.text)
    Connect_Check                            0x0800dc17   Thumb Code     2  lcd_test.o(.text)
    Res_Check                                0x0800dc19   Thumb Code   170  lcd_test.o(.text)
    IDCheck                                  0x0800dcc3   Thumb Code   444  lcd_test.o(.text)
    Current_Upload                           0x0800de7f   Thumb Code   228  lcd_test.o(.text)
    Meas_Current_Normal                      0x0800df63   Thumb Code   228  lcd_test.o(.text)
    AOI_Current_Check_Normal                 0x0800e047   Thumb Code   304  lcd_test.o(.text)
    Meas_Current_Sleep                       0x0800e177   Thumb Code   848  lcd_test.o(.text)
    AOI_Current_Check_Sleep                  0x0800e4c7   Thumb Code   220  lcd_test.o(.text)
    AOI_Current_Check                        0x0800e5a3   Thumb Code   982  lcd_test.o(.text)
    Current_Check                            0x0800e979   Thumb Code   490  lcd_test.o(.text)
    SleepCurrent_Check                       0x0800eb63   Thumb Code   614  lcd_test.o(.text)
    ESD_Fail_Recover                         0x0800edc9   Thumb Code    78  lcd_test.o(.text)
    ON3sec_OFF3sec                           0x0800ee17   Thumb Code   216  lcd_test.o(.text)
    Test_Mode_Switch                         0x0800eeef   Thumb Code   322  lcd_test.o(.text)
    Visual_check                             0x0800f209   Thumb Code   508  test_debug.o(.text)
    Power_check                              0x0800f405   Thumb Code   234  test_debug.o(.text)
    Pattern_check                            0x0800f4ef   Thumb Code    18  test_debug.o(.text)
    ACD_test                                 0x0800f501   Thumb Code   150  test_debug.o(.text)
    pattern24_test                           0x0800f597   Thumb Code   470  test_debug.o(.text)
    Test_DEBUG                               0x0800f76d   Thumb Code     8  test_debug.o(.text)
    Test_DEMO                                0x0800f775   Thumb Code   146  test_demo.o(.text)
    ETA_Visual_Check                         0x0800f811   Thumb Code   268  test_od.o(.text)
    OD_Visual_Check                          0x0800f91d   Thumb Code   638  test_od.o(.text)
    Test_OD                                  0x0800fb9b   Thumb Code     8  test_od.o(.text)
    Test_ET1                                 0x0800fbc5   Thumb Code   146  test_et1.o(.text)
    Test_ET2                                 0x0800fc61   Thumb Code   664  test_et2.o(.text)
    Test_ET3                                 0x0800ff51   Thumb Code   164  test_et3.o(.text)
    OTPInfo_SaveFile_Check                   0x0800fffd   Thumb Code   164  test_otp.o(.text)
    SD_Write_OTPInfo                         0x080100a1   Thumb Code    62  test_otp.o(.text)
    AutoVcom                                 0x080100df   Thumb Code  1626  test_otp.o(.text)
    Gamma_Check1                             0x08010739   Thumb Code   840  test_otp.o(.text)
    Chroma_Check                             0x08010a81   Thumb Code   322  test_otp.o(.text)
    Contrast_Check                           0x08010bc3   Thumb Code   244  test_otp.o(.text)
    OTP                                      0x08010cb7   Thumb Code  3910  test_otp.o(.text)
    Test_OTP                                 0x08011bfd   Thumb Code   794  test_otp.o(.text)
    Gamma_Check                              0x08011f17   Thumb Code  1080  test_otp.o(.text)
    CURRENT2DC                               0x08012389   Thumb Code    14  test_ra.o(.text)
    RA_LEDPWM                                0x08012397   Thumb Code    62  test_ra.o(.text)
    Test_RA                                  0x080123d5   Thumb Code     2  test_ra.o(.text)
    ESD_Visual_Check                         0x080123dd   Thumb Code   604  test_esd.o(.text)
    Test_ESD                                 0x08012639   Thumb Code    12  test_esd.o(.text)
    Test_CTP                                 0x08012695   Thumb Code   316  test_ctp.o(.text)
    Test_OQC1                                0x080127d9   Thumb Code   602  test_oqc1.o(.text)
    get_RGBGray                              0x08012a75   Thumb Code   300  test_sdcard.o(.text)
    TEST_MODE_Init                           0x08012ba1   Thumb Code     2  test_sdcard.o(.text)
    Display_Pattern                          0x08012ba3   Thumb Code   450  test_sdcard.o(.text)
    SendPage                                 0x08012dc5   Thumb Code    26  common_otpcode_nt36672a_v3.o(.text)
    ScanForward                              0x08012ddf   Thumb Code    26  common_otpcode_nt36672a_v3.o(.text)
    ScanBackward                             0x08012df9   Thumb Code    26  common_otpcode_nt36672a_v3.o(.text)
    VCOM_Set                                 0x08012e13   Thumb Code   182  common_otpcode_nt36672a_v3.o(.text)
    VCOM_Read                                0x08012ec9   Thumb Code    64  common_otpcode_nt36672a_v3.o(.text)
    NVM_Flag                                 0x08012f09   Thumb Code    56  common_otpcode_nt36672a_v3.o(.text)
    MTP_CRC_Calc                             0x08012f41   Thumb Code   136  common_otpcode_nt36672a_v3.o(.text)
    OTPTimes_Read                            0x08012fc9   Thumb Code   104  common_otpcode_nt36672a_v3.o(.text)
    ID_OTP                                   0x08013031   Thumb Code   400  common_otpcode_nt36672a_v3.o(.text)
    OTPSequence                              0x080131c1   Thumb Code   932  common_otpcode_nt36672a_v3.o(.text)
    ICReg_chk                                0x08013565   Thumb Code   158  common_otpcode_nt36672a_v3.o(.text)
    SD_FW_OPEN                               0x080136ed   Thumb Code   306  nt36672a_fw_update_v1p0.o(.text)
    SD_FW_Close                              0x08013833   Thumb Code    16  nt36672a_fw_update_v1p0.o(.text)
    TCH_SPI_UNConfig                         0x080138dd   Thumb Code   112  nt36672a_fw_update_v1p0.o(.text)
    nvt_bin_header_parser                    0x08013e4b   Thumb Code  1382  nt36672a_fw_update_v1p0.o(.text)
    Write_Partition                          0x080143b1   Thumb Code   234  nt36672a_fw_update_v1p0.o(.text)
    nvt_set_bld_crc                          0x0801449b   Thumb Code   202  nt36672a_fw_update_v1p0.o(.text)
    Check_HW_CRC                             0x08014565   Thumb Code   510  nt36672a_fw_update_v1p0.o(.text)
    Check_CheckSum                           0x08014763   Thumb Code   156  nt36672a_fw_update_v1p0.o(.text)
    Program_FW                               0x080147ff   Thumb Code   220  nt36672a_fw_update_v1p0.o(.text)
    RA_Program_FW                            0x080148db   Thumb Code   890  nt36672a_fw_update_v1p0.o(.text)
    f_mount                                  0x080162ed   Thumb Code    86  ff.o(.text)
    f_open                                   0x08016343   Thumb Code   524  ff.o(.text)
    f_read                                   0x0801654f   Thumb Code   412  ff.o(.text)
    f_write                                  0x080166eb   Thumb Code   482  ff.o(.text)
    f_sync                                   0x080168cd   Thumb Code   156  ff.o(.text)
    f_close                                  0x08016969   Thumb Code    34  ff.o(.text)
    f_lseek                                  0x0801698b   Thumb Code   386  ff.o(.text)
    f_opendir                                0x08016b0d   Thumb Code   112  ff.o(.text)
    f_closedir                               0x08016b7d   Thumb Code    24  ff.o(.text)
    f_readdir                                0x08016b95   Thumb Code    78  ff.o(.text)
    f_findnext                               0x08016be3   Thumb Code    72  ff.o(.text)
    f_findfirst                              0x08016c2b   Thumb Code    42  ff.o(.text)
    f_stat                                   0x08016c55   Thumb Code    62  ff.o(.text)
    f_getfree                                0x08016c93   Thumb Code   258  ff.o(.text)
    f_truncate                               0x08016d95   Thumb Code   178  ff.o(.text)
    f_unlink                                 0x08016e47   Thumb Code   170  ff.o(.text)
    f_mkdir                                  0x08016ef1   Thumb Code   346  ff.o(.text)
    f_rename                                 0x0801704b   Thumb Code   272  ff.o(.text)
    f_gets                                   0x0801715b   Thumb Code    82  ff.o(.text)
    f_putc                                   0x08017227   Thumb Code    34  ff.o(.text)
    f_puts                                   0x08017249   Thumb Code    44  ff.o(.text)
    f_printf                                 0x08017275   Thumb Code   596  ff.o(.text)
    disk_status                              0x080174c9   Thumb Code     6  diskio.o(.text)
    disk_initialize                          0x080174cf   Thumb Code    26  diskio.o(.text)
    disk_read                                0x080174e9   Thumb Code    94  diskio.o(.text)
    disk_write                               0x08017547   Thumb Code    94  diskio.o(.text)
    disk_ioctl                               0x080175a5   Thumb Code     6  diskio.o(.text)
    get_fattime                              0x080175ab   Thumb Code     4  diskio.o(.text)
    ff_convert                               0x08017631   Thumb Code    70  ccsbcs.o(.text)
    ff_wtoupper                              0x08017677   Thumb Code   156  ccsbcs.o(.text)
    __aeabi_memcpy                           0x08017721   Thumb Code    36  memcpya.o(.text)
    __aeabi_memcpy4                          0x08017721   Thumb Code     0  memcpya.o(.text)
    __aeabi_memcpy8                          0x08017721   Thumb Code     0  memcpya.o(.text)
    __aeabi_memset                           0x08017745   Thumb Code    14  memseta.o(.text)
    __aeabi_memset4                          0x08017745   Thumb Code     0  memseta.o(.text)
    __aeabi_memset8                          0x08017745   Thumb Code     0  memseta.o(.text)
    __aeabi_memclr                           0x08017753   Thumb Code     4  memseta.o(.text)
    __aeabi_memclr4                          0x08017753   Thumb Code     0  memseta.o(.text)
    __aeabi_memclr8                          0x08017753   Thumb Code     0  memseta.o(.text)
    _memset$wrapper                          0x08017757   Thumb Code    18  memseta.o(.text)
    strstr                                   0x08017769   Thumb Code    36  strstr.o(.text)
    strncpy                                  0x0801778d   Thumb Code    24  strncpy.o(.text)
    strlen                                   0x080177a5   Thumb Code    14  strlen.o(.text)
    strtok                                   0x080177b5   Thumb Code    62  strtok.o(.text)
    atoi                                     0x080177f9   Thumb Code    26  atoi.o(.text)
    __aeabi_fadd                             0x08017813   Thumb Code   164  fadd.o(.text)
    __aeabi_fsub                             0x080178b7   Thumb Code     6  fadd.o(.text)
    __aeabi_frsub                            0x080178bd   Thumb Code     6  fadd.o(.text)
    __aeabi_fmul                             0x080178c3   Thumb Code   100  fmul.o(.text)
    __aeabi_fdiv                             0x08017927   Thumb Code   124  fdiv.o(.text)
    __aeabi_dadd                             0x080179a3   Thumb Code   322  dadd.o(.text)
    __aeabi_dsub                             0x08017ae5   Thumb Code     6  dadd.o(.text)
    __aeabi_drsub                            0x08017aeb   Thumb Code     6  dadd.o(.text)
    __aeabi_dmul                             0x08017af1   Thumb Code   228  dmul.o(.text)
    __aeabi_ddiv                             0x08017bd5   Thumb Code   222  ddiv.o(.text)
    __aeabi_ui2f                             0x08017cb3   Thumb Code    10  ffltui.o(.text)
    __aeabi_i2d                              0x08017cbd   Thumb Code    34  dflti.o(.text)
    __aeabi_ui2d                             0x08017cdf   Thumb Code    26  dfltui.o(.text)
    __aeabi_f2uiz                            0x08017cf9   Thumb Code    40  ffixui.o(.text)
    __aeabi_d2iz                             0x08017d21   Thumb Code    62  dfixi.o(.text)
    __aeabi_d2uiz                            0x08017d5f   Thumb Code    50  dfixui.o(.text)
    __aeabi_f2d                              0x08017d91   Thumb Code    38  f2d.o(.text)
    __aeabi_cdcmpeq                          0x08017db9   Thumb Code     0  cdcmple.o(.text)
    __aeabi_cdcmple                          0x08017db9   Thumb Code    48  cdcmple.o(.text)
    __aeabi_cdrcmple                         0x08017de9   Thumb Code    48  cdrcmple.o(.text)
    __aeabi_d2f                              0x08017e19   Thumb Code    56  d2f.o(.text)
    __aeabi_cfcmpeq                          0x08017e51   Thumb Code     0  cfcmple.o(.text)
    __aeabi_cfcmple                          0x08017e51   Thumb Code    20  cfcmple.o(.text)
    __aeabi_cfrcmple                         0x08017e65   Thumb Code    20  cfrcmple.o(.text)
    __aeabi_uidiv                            0x08017e79   Thumb Code     0  uidiv.o(.text)
    __aeabi_uidivmod                         0x08017e79   Thumb Code    44  uidiv.o(.text)
    __aeabi_uldivmod                         0x08017ea5   Thumb Code    98  uldiv.o(.text)
    __aeabi_llsl                             0x08017f07   Thumb Code    30  llshl.o(.text)
    _ll_shift_l                              0x08017f07   Thumb Code     0  llshl.o(.text)
    __aeabi_llsr                             0x08017f25   Thumb Code    32  llushr.o(.text)
    _ll_ushift_r                             0x08017f25   Thumb Code     0  llushr.o(.text)
    __aeabi_lasr                             0x08017f45   Thumb Code    36  llsshr.o(.text)
    _ll_sshift_r                             0x08017f45   Thumb Code     0  llsshr.o(.text)
    __strtod_int                             0x08017f9f   Thumb Code    90  strtod.o(.text)
    strtol                                   0x08018005   Thumb Code   112  strtol.o(.text)
    __I$use$fp                               0x08018075   Thumb Code     0  iusefp.o(.text)
    _float_round                             0x08018075   Thumb Code    18  fepilogue.o(.text)
    _float_epilogue                          0x08018087   Thumb Code    92  fepilogue.o(.text)
    _double_round                            0x080180e3   Thumb Code    30  depilogue.o(.text)
    _double_epilogue                         0x08018101   Thumb Code   156  depilogue.o(.text)
    __ARM_scalbn                             0x0801819d   Thumb Code    46  dscalb.o(.text)
    scalbn                                   0x0801819d   Thumb Code     0  dscalb.o(.text)
    _dsqrt                                   0x080181cb   Thumb Code   162  dsqrt.o(.text)
    __aeabi_d2ulz                            0x0801826d   Thumb Code    48  dfixul.o(.text)
    __scatterload                            0x0801829d   Thumb Code    28  init.o(.text)
    __scatterload_rt2                        0x0801829d   Thumb Code     0  init.o(.text)
    __rt_ctype_table                         0x080182c1   Thumb Code     4  ctype_o.o(.text)
    isspace                                  0x080182c9   Thumb Code    18  isspace_o.o(.text)
    _scanf_real                              0x080183dd   Thumb Code     0  scanf_fp.o(.text)
    _scanf_really_real                       0x080183dd   Thumb Code   556  scanf_fp.o(.text)
    _sgetc                                   0x08018615   Thumb Code    30  _sgetc.o(.text)
    _sbackspace                              0x08018633   Thumb Code    34  _sgetc.o(.text)
    _strtoul                                 0x08018655   Thumb Code   158  _strtoul.o(.text)
    _chval                                   0x080186f3   Thumb Code    28  _chval.o(.text)
    __aeabi_ul2d                             0x0801870f   Thumb Code    24  dfltul.o(.text)
    __decompress                             0x08018727   Thumb Code     0  __dclz77c.o(.text)
    __decompress2                            0x08018727   Thumb Code    94  __dclz77c.o(.text)
    I2C_Delay                                0x08018785   Thumb Code    10  i2c.o(i.I2C_Delay)
    POWER_IOVCC_Reset                        0x08018791   Thumb Code    12  power.o(i.POWER_IOVCC_Reset)
    POWER_IOVCC_Set                          0x080187a1   Thumb Code    12  power.o(i.POWER_IOVCC_Set)
    POWER_VCI_Reset                          0x080187b1   Thumb Code    12  power.o(i.POWER_VCI_Reset)
    POWER_VCI_Set                            0x080187c1   Thumb Code    12  power.o(i.POWER_VCI_Set)
    POWER_VSN_Reset                          0x080187d1   Thumb Code    12  power.o(i.POWER_VSN_Reset)
    POWER_VSN_Set                            0x080187e1   Thumb Code    12  power.o(i.POWER_VSN_Set)
    POWER_VSP_Reset                          0x080187f1   Thumb Code    14  power.o(i.POWER_VSP_Reset)
    POWER_VSP_Set                            0x08018805   Thumb Code    14  power.o(i.POWER_VSP_Set)
    __0printf                                0x08018819   Thumb Code    22  printfa.o(i.__0printf)
    __1printf                                0x08018819   Thumb Code     0  printfa.o(i.__0printf)
    __2printf                                0x08018819   Thumb Code     0  printfa.o(i.__0printf)
    __c89printf                              0x08018819   Thumb Code     0  printfa.o(i.__0printf)
    printf                                   0x08018819   Thumb Code     0  printfa.o(i.__0printf)
    __0sprintf                               0x08018839   Thumb Code    34  printfa.o(i.__0sprintf)
    __1sprintf                               0x08018839   Thumb Code     0  printfa.o(i.__0sprintf)
    __2sprintf                               0x08018839   Thumb Code     0  printfa.o(i.__0sprintf)
    __c89sprintf                             0x08018839   Thumb Code     0  printfa.o(i.__0sprintf)
    sprintf                                  0x08018839   Thumb Code     0  printfa.o(i.__0sprintf)
    __ARM_fpclassify                         0x08018861   Thumb Code    40  fpclassify.o(i.__ARM_fpclassify)
    __aeabi_errno_addr                       0x08018889   Thumb Code     4  errno.o(i.__aeabi_errno_addr)
    __rt_errno_addr                          0x08018889   Thumb Code     0  errno.o(i.__aeabi_errno_addr)
    __ieee754_rem_pio2                       0x08018891   Thumb Code   828  rred.o(i.__ieee754_rem_pio2)
    __kernel_cos                             0x08018c19   Thumb Code   230  cos_i.o(i.__kernel_cos)
    __kernel_poly                            0x08018d15   Thumb Code   170  poly.o(i.__kernel_poly)
    __kernel_sin                             0x08018dc1   Thumb Code   224  sin_i.o(i.__kernel_sin)
    __mathlib_dbl_divzero                    0x08018ead   Thumb Code    12  dunder.o(i.__mathlib_dbl_divzero)
    __mathlib_dbl_infnan                     0x08018ebd   Thumb Code     6  dunder.o(i.__mathlib_dbl_infnan)
    __mathlib_dbl_infnan2                    0x08018ec3   Thumb Code     4  dunder.o(i.__mathlib_dbl_infnan2)
    __mathlib_dbl_invalid                    0x08018ec7   Thumb Code    12  dunder.o(i.__mathlib_dbl_invalid)
    __mathlib_dbl_overflow                   0x08018ed3   Thumb Code    14  dunder.o(i.__mathlib_dbl_overflow)
    __mathlib_dbl_underflow                  0x08018ee1   Thumb Code    10  dunder.o(i.__mathlib_dbl_underflow)
    __read_errno                             0x08018ef1   Thumb Code     6  errno.o(i.__read_errno)
    __scatterload_copy                       0x08018efd   Thumb Code    14  handlers.o(i.__scatterload_copy)
    __scatterload_null                       0x08018f0b   Thumb Code     2  handlers.o(i.__scatterload_null)
    __scatterload_zeroinit                   0x08018f0d   Thumb Code    14  handlers.o(i.__scatterload_zeroinit)
    __set_errno                              0x08018f1d   Thumb Code     6  errno.o(i.__set_errno)
    _is_digit                                0x080190ad   Thumb Code    14  scanf_fp.o(i._is_digit)
    atof                                     0x080197f5   Thumb Code    42  atof.o(i.atof)
    cos                                      0x08019821   Thumb Code   148  cos.o(i.cos)
    exp                                      0x080198bd   Thumb Code   554  exp.o(i.exp)
    floor                                    0x08019b41   Thumb Code   204  floor.o(i.floor)
    free                                     0x08019c1d   Thumb Code    76  malloc.o(i.free)
    log                                      0x08019c6d   Thumb Code   808  log.o(i.log)
    log10                                    0x08019fc9   Thumb Code   198  log10.o(i.log10)
    malloc                                   0x0801a0ad   Thumb Code    92  malloc.o(i.malloc)
    pow                                      0x0801a119   Thumb Code  2512  pow.o(i.pow)
    sin                                      0x0801aaf1   Thumb Code   150  sin.o(i.sin)
    sqrt                                     0x0801ab91   Thumb Code    76  sqrt.o(i.sqrt)
    LED_PIN                                  0x0801abdc   Data           6  led.o(.constdata)
    __mathlib_zero                           0x0801b168   Data           8  qnan.o(.constdata)
    __ctype_table                            0x0801b260   Data         129  ctype_o.o(.constdata)
    Region$$Table$$Base                      0x0801c498   Number         0  anon$$obj.o(Region$$Table)
    Region$$Table$$Limit                     0x0801c4b8   Number         0  anon$$obj.o(Region$$Table)
    SystemCoreClock                          0x20000010   Data           4  system_stm32f2xx.o(.data)
    AHBPrescTable                            0x20000014   Data          16  system_stm32f2xx.o(.data)
    TEST_MODE                                0x20000024   Data           1  main.o(.data)
    PC_COM                                   0x20000030   Data           4  usart.o(.data)
    MSE_COM                                  0x20000034   Data           4  usart.o(.data)
    USART_RDataCnt                           0x20000038   Data           2  usart.o(.data)
    debug                                    0x2000003c   Data           4  usart.o(.data)
    debug1                                   0x20000040   Data           4  usart.o(.data)
    flag_blink                               0x20000044   Data           1  usart.o(.data)
    r1                                       0x20000045   Data           1  usart.o(.data)
    g1                                       0x20000046   Data           1  usart.o(.data)
    b1                                       0x20000047   Data           1  usart.o(.data)
    r2                                       0x20000048   Data           1  usart.o(.data)
    g2                                       0x20000049   Data           1  usart.o(.data)
    b2                                       0x2000004a   Data           1  usart.o(.data)
    interval                                 0x2000004c   Data           2  usart.o(.data)
    ID1                                      0x2000004e   Data           1  usart.o(.data)
    ID2                                      0x2000004f   Data           1  usart.o(.data)
    ID3                                      0x20000050   Data           1  usart.o(.data)
    USART_EvenStatus                         0x20000051   Data           1  usart.o(.data)
    USART_CMD_FLAG                           0x20000052   Data           1  usart.o(.data)
    auto_line                                0x20000053   Data           1  usart.o(.data)
    GAMMAEXPERT                              0x20000054   Data           1  usart.o(.data)
    Flag_1ms_Timeup                          0x20000058   Data           1  timer.o(.data)
    Timer3_Ms_Counter                        0x2000005c   Data           4  timer.o(.data)
    Timer4_Sec_Counter                       0x20000060   Data           2  timer.o(.data)
    Admesy_RDataCnt                          0x20000064   Data           2  admesy.o(.data)
    Admesy_RDataFlag                         0x20000066   Data           1  admesy.o(.data)
    MSE_State                                0x20000067   Data           1  admesy.o(.data)
    Flicker                                  0x20000068   Data           4  admesy.o(.data)
    color_x                                  0x2000006c   Data           4  admesy.o(.data)
    color_y                                  0x20000070   Data           4  admesy.o(.data)
    Lv                                       0x20000074   Data           4  admesy.o(.data)
    CCT                                      0x20000078   Data           4  admesy.o(.data)
    color_u                                  0x2000007c   Data           4  admesy.o(.data)
    color_v                                  0x20000080   Data           4  admesy.o(.data)
    ADC_ConvertedValue                       0x20000084   Data           2  adc.o(.data)
    I2C_PORT_SDA                             0x20000088   Data           4  i2c.o(.data)
    I2C_PORT_SCL                             0x2000008c   Data           4  i2c.o(.data)
    I2C_PIN_SDA                              0x20000090   Data           2  i2c.o(.data)
    I2C_PIN_SCL                              0x20000092   Data           2  i2c.o(.data)
    I2C_ADDR                                 0x20000094   Data           1  i2c.o(.data)
    DSENSOR_I2C_ADDR                         0x20000095   Data           1  digital_sensor.o(.data)
    LED_PORT                                 0x20000098   Data          12  led.o(.data)
    keyStateTemp                             0x200000a4   Data           1  key.o(.data)
    CTPStateTemp                             0x200000a5   Data           1  key.o(.data)
    TOTAL_DIS_NUM                            0x200000a6   Data           1  key.o(.data)
    DIS_NUM                                  0x200000a7   Data           1  key.o(.data)
    DIS_NUM_OLD                              0x200000a8   Data           1  key.o(.data)
    LED_TEMP                                 0x200000a9   Data           1  key.o(.data)
    DIS_AUTO                                 0x200000aa   Data           1  key.o(.data)
    SSD_B7                                   0x200000b2   Data           2  ssd2828.o(.data)
    hsum                                     0x200000b4   Data           2  fpga.o(.data)
    vsum                                     0x200000b6   Data           2  fpga.o(.data)
    line_ram                                 0x200000b8   Data           2  fpga.o(.data)
    frame_ram_h                              0x200000ba   Data           2  fpga.o(.data)
    frame_ram_l                              0x200000bc   Data           2  fpga.o(.data)
    PWM_T_cnt                                0x200000be   Data           2  lcd.o(.data)
    PWM_DUTY                                 0x200000c0   Data           2  lcd.o(.data)
    StopCondition                            0x200000cc   Data           4  sdcard.o(.data)
    TransferError                            0x200000d0   Data           1  sdcard.o(.data)
    TransferEnd                              0x200000d4   Data           4  sdcard.o(.data)
    Pic_Load                                 0x200000d8   Data           1  bsp_bmp.o(.data)
    Pic_Load_Finish                          0x200000d9   Data           1  bsp_bmp.o(.data)
    bmpres                                   0x200000da   Data           1  bsp_bmp.o(.data)
    Flag_Test_Current                        0x200000dc   Data           1  lcd_test.o(.data)
    current_NG                               0x200000dd   Data           1  lcd_test.o(.data)
    SDCard_NG                                0x200000de   Data           1  lcd_test.o(.data)
    TE_NG                                    0x200000df   Data           1  lcd_test.o(.data)
    PWM_NG                                   0x200000e0   Data           1  lcd_test.o(.data)
    ID_NG                                    0x200000e1   Data           1  lcd_test.o(.data)
    FW_NG                                    0x200000e2   Data           1  lcd_test.o(.data)
    FPGA_NG                                  0x200000e3   Data           1  lcd_test.o(.data)
    delay_cnt                                0x200000e4   Data           2  lcd_test.o(.data)
    PWM_detect_cnt                           0x200000e6   Data           2  lcd_test.o(.data)
    PWM_DDIC_LOW                             0x200000e8   Data           2  lcd_test.o(.data)
    PWM_DDIC_HIGH                            0x200000ea   Data           2  lcd_test.o(.data)
    PWM_pre                                  0x200000ec   Data           1  lcd_test.o(.data)
    PWM_curr                                 0x200000ed   Data           1  lcd_test.o(.data)
    I_IOVCC                                  0x200000f0   Data           4  lcd_test.o(.data)
    I_VSP                                    0x200000f4   Data           4  lcd_test.o(.data)
    I_VSN                                    0x200000f8   Data           4  lcd_test.o(.data)
    I_LEDA                                   0x200000fc   Data           4  lcd_test.o(.data)
    SPEC_MAX_IOVCC                           0x20000100   Data           4  lcd_test.o(.data)
    SPEC_MAX_VSP                             0x20000104   Data           4  lcd_test.o(.data)
    SPEC_MAX_VSN                             0x20000108   Data           4  lcd_test.o(.data)
    SPEC_LEDA_MIN                            0x2000010c   Data           4  lcd_test.o(.data)
    SPEC_LEDA_MAX                            0x20000110   Data           4  lcd_test.o(.data)
    ID_ColorCheck                            0x20000114   Data           1  lcd_test.o(.data)
    ID_LVCheck                               0x20000115   Data           1  lcd_test.o(.data)
    ID_PJ2Check                              0x20000116   Data           1  lcd_test.o(.data)
    flicker_best                             0x20000118   Data           4  test_otp.o(.data)
    white                                    0x2000011c   Data           4  test_otp.o(.data)
    black                                    0x20000120   Data           4  test_otp.o(.data)
    chroma_x                                 0x20000124   Data           4  test_otp.o(.data)
    chroma_y                                 0x20000128   Data           4  test_otp.o(.data)
    chroma_Lv                                0x2000012c   Data           4  test_otp.o(.data)
    chroma_u                                 0x20000130   Data           4  test_otp.o(.data)
    chroma_v                                 0x20000134   Data           4  test_otp.o(.data)
    Gamma                                    0x20000138   Data           8  test_otp.o(.data)
    dif                                      0x20000140   Data           8  test_otp.o(.data)
    OTP_FLAG                                 0x20000148   Data           1  test_otp.o(.data)
    LPatNum                                  0x20000149   Data           1  test_sdcard.o(.data)
    SD_MODE_ERROR                            0x2000014a   Data           1  test_sdcard.o(.data)
    FPGA_porchPara                           0x2000014c   Data          10  common_initialcode_6.5inch_cof_nt36682a_cmos_v4p0_20180704.o(.data)
    SSDInitCode                              0x20000156   Data         124  common_initialcode_6.5inch_cof_nt36682a_cmos_v4p0_20180704.o(.data)
    ET1_InitCode                             0x200001d2   Data        2032  common_initialcode_6.5inch_cof_nt36682a_cmos_v4p0_20180704.o(.data)
    ET2_InitCode                             0x200009c2   Data          58  common_initialcode_6.5inch_cof_nt36682a_cmos_v4p0_20180704.o(.data)
    RA_InitCode                              0x200009fc   Data         140  common_initialcode_6.5inch_cof_nt36682a_cmos_v4p0_20180704.o(.data)
    OTP_TIMES                                0x20000a88   Data           1  common_otpcode_nt36672a_v3.o(.data)
    vcom_best                                0x20000a8a   Data           2  common_otpcode_nt36672a_v3.o(.data)
    MAIN_PORT                                0x20000a8c   Data           1  common_otpcode_nt36672a_v3.o(.data)
    TCH_SPI_CSN_PIN                          0x20000a90   Data           2  nt36672a_fw_update_v1p0.o(.data)
    TCH_SPI_CSN_GPIO_PORT                    0x20000a94   Data           4  nt36672a_fw_update_v1p0.o(.data)
    ENG_RST_ADDR                             0x20000a98   Data           4  nt36672a_fw_update_v1p0.o(.data)
    SWRST_N8_ADDR                            0x20000a9c   Data           4  nt36672a_fw_update_v1p0.o(.data)
    support_hw_crc                           0x20000aa0   Data           1  nt36672a_fw_update_v1p0.o(.data)
    fileSize                                 0x20000aa8   Data           4  nt36672a_fw_update_v1p0.o(.data)
    FWVersion                                0x20000aac   Data          12  nt36672a_fw_update_v1p0.o(.data)
    __stdout                                 0x20000acc   Data           4  stdout.o(.data)
    __microlib_freelist                      0x20000ad0   Data           4  mvars.o(.data)
    __microlib_freelist_initialised          0x20000ad4   Data           4  mvars.o(.data)
    USART_RData                              0x20000adc   Data        1024  usart.o(.bss)
    Admesy_RData                             0x20000edc   Data        8224  admesy.o(.bss)
    SDCardInfo                               0x20002f2c   Data          80  sdcard.o(.bss)
    SDIO_InitStructure                       0x20002f7c   Data          24  sdcard.o(.bss)
    SDIO_CmdInitStructure                    0x20002f94   Data          20  sdcard.o(.bss)
    SDIO_DataInitStructure                   0x20002fa8   Data          24  sdcard.o(.bss)
    pColorData                               0x20002fc0   Data        8000  bsp_bmp.o(.bss)
    bmpfs                                    0x20004f00   Data        1128  bsp_bmp.o(.bss)
    bmpfsrc                                  0x20005368   Data         552  bsp_bmp.o(.bss)
    OTPInfo_FilePath                         0x20005590   Data          32  test_otp.o(.bss)
    VERSION_DISPLAY                          0x200055b0   Data          10  test_sdcard.o(.bss)
    PRO_DISPLAY                              0x200055ba   Data          20  test_sdcard.o(.bss)
    Patten_Buf                               0x200055ce   Data        1024  test_sdcard.o(.bss)
    fwfile                                   0x200059d0   Data         552  nt36672a_fw_update_v1p0.o(.bss)
    filedir                                  0x20005bf8   Data          52  nt36672a_fw_update_v1p0.o(.bss)
    FWContent                                0x20005c2c   Data        1024  nt36672a_fw_update_v1p0.o(.bss)
    fwbuf                                    0x2000602c   Data          20  nt36672a_fw_update_v1p0.o(.bss)
    FW_project                               0x20006040   Data          14  nt36672a_fw_update_v1p0.o(.bss)
    __heap_base                              0x20006368   Data           0  startup_stm32f2xx.o(HEAP)
    __heap_limit                             0x2001e368   Data           0  startup_stm32f2xx.o(HEAP)
    __initial_sp                             0x2001e768   Data           0  startup_stm32f2xx.o(STACK)



==============================================================================

Memory Map of the image

  Image Entry point : 0x08000185

  Load Region LR_IROM1 (Base: 0x08000000, Size: 0x0001cf94, Max: 0x00100000, ABSOLUTE, COMPRESSED[0x0001c944])

    Execution Region ER_IROM1 (Base: 0x08000000, Size: 0x0001c4b8, Max: 0x00100000, ABSOLUTE)

    Base Addr    Size         Type   Attr      Idx    E Section Name        Object

    0x08000000   0x00000184   Data   RO            3    RESET               startup_stm32f2xx.o
    0x08000184   0x00000000   Code   RO         1236  * .ARM.Collect$$$$00000000  mc_w.l(entry.o)
    0x08000184   0x00000004   Code   RO         1633    .ARM.Collect$$$$00000001  mc_w.l(entry2.o)
    0x08000188   0x00000004   Code   RO         1636    .ARM.Collect$$$$00000004  mc_w.l(entry5.o)
    0x0800018c   0x00000000   Code   RO         1638    .ARM.Collect$$$$00000008  mc_w.l(entry7b.o)
    0x0800018c   0x00000000   Code   RO         1640    .ARM.Collect$$$$0000000A  mc_w.l(entry8b.o)
    0x0800018c   0x00000008   Code   RO         1641    .ARM.Collect$$$$0000000B  mc_w.l(entry9a.o)
    0x08000194   0x00000000   Code   RO         1643    .ARM.Collect$$$$0000000D  mc_w.l(entry10a.o)
    0x08000194   0x00000000   Code   RO         1645    .ARM.Collect$$$$0000000F  mc_w.l(entry11a.o)
    0x08000194   0x00000004   Code   RO         1634    .ARM.Collect$$$$00002712  mc_w.l(entry2.o)
    0x08000198   0x00000024   Code   RO            4    .text               startup_stm32f2xx.o
    0x080001bc   0x0000025c   Code   RO           10    .text               stm32f2xx_gpio.o
    0x08000418   0x00000588   Code   RO           67    .text               stm32f2xx_rcc.o
    0x080009a0   0x0000041a   Code   RO           81    .text               stm32f2xx_usart.o
    0x08000dba   0x00000002   PAD
    0x08000dbc   0x000003a8   Code   RO           93    .text               stm32f2xx_dma.o
    0x08001164   0x00000464   Code   RO          105    .text               stm32f2xx_adc.o
    0x080015c8   0x000000e0   Code   RO          117    .text               misc.o
    0x080016a8   0x00000608   Code   RO          144    .text               stm32f2xx_fsmc.o
    0x08001cb0   0x000001f0   Code   RO          156    .text               stm32f2xx_sdio.o
    0x08001ea0   0x00000ca2   Code   RO          168    .text               stm32f2xx_tim.o
    0x08002b42   0x00000002   PAD
    0x08002b44   0x000001e0   Code   RO          190    .text               system_stm32f2xx.o
    0x08002d24   0x00000398   Code   RO          208    .text               main.o
    0x080030bc   0x00000140   Code   RO          375    .text               taskpolling.o
    0x080031fc   0x00000058   Code   RO          392    .text               stm32f2xx_it.o
    0x08003254   0x00000144   Code   RO          404    .text               systick.o
    0x08003398   0x0000056c   Code   RO          422    .text               board_conf.o
    0x08003904   0x00001bd8   Code   RO          435    .text               usart.o
    0x080054dc   0x0000019c   Code   RO          506    .text               timer.o
    0x08005678   0x00000a60   Code   RO          525    .text               admesy.o
    0x080060d8   0x00000cb8   Code   RO          544    .text               admesy_flicker.o
    0x08006d90   0x00000ed4   Code   RO          581    .text               kiss_fft.o
    0x08007c64   0x00000330   Code   RO          593    .text               adc.o
    0x08007f94   0x0000078c   Code   RO          608    .text               i2c.o
    0x08008720   0x00000414   Code   RO          634    .text               power.o
    0x08008b34   0x00000284   Code   RO          691    .text               digital_sensor.o
    0x08008db8   0x000003c4   Code   RO          707    .text               eeprom.o
    0x0800917c   0x00000090   Code   RO          719    .text               led.o
    0x0800920c   0x00000718   Code   RO          735    .text               key.o
    0x08009924   0x00000880   Code   RO          754    .text               ssd2828.o
    0x0800a1a4   0x00000ebc   Code   RO          776    .text               fpga.o
    0x0800b060   0x00000ae0   Code   RO          798    .text               lcd.o
    0x0800bb40   0x00001834   Code   RO          817    .text               sdcard.o
    0x0800d374   0x000005a0   Code   RO          833    .text               bsp_bmp.o
    0x0800d914   0x000018f4   Code   RO          852    .text               lcd_test.o
    0x0800f208   0x0000056c   Code   RO          879    .text               test_debug.o
    0x0800f774   0x0000009c   Code   RO          891    .text               test_demo.o
    0x0800f810   0x000003b4   Code   RO          903    .text               test_od.o
    0x0800fbc4   0x0000009c   Code   RO          915    .text               test_et1.o
    0x0800fc60   0x000002f0   Code   RO          927    .text               test_et2.o
    0x0800ff50   0x000000ac   Code   RO          940    .text               test_et3.o
    0x0800fffc   0x0000238c   Code   RO          952    .text               test_otp.o
    0x08012388   0x00000054   Code   RO          976    .text               test_ra.o
    0x080123dc   0x000002b8   Code   RO          988    .text               test_esd.o
    0x08012694   0x00000144   Code   RO         1000    .text               test_ctp.o
    0x080127d8   0x0000029c   Code   RO         1012    .text               test_oqc1.o
    0x08012a74   0x00000350   Code   RO         1024    .text               test_sdcard.o
    0x08012dc4   0x00000928   Code   RO         1058    .text               common_otpcode_nt36672a_v3.o
    0x080136ec   0x00001588   Code   RO         1078    .text               nt36672a_fw_update_v1p0.o
    0x08014c74   0x00002854   Code   RO         1099    .text               ff.o
    0x080174c8   0x00000168   Code   RO         1127    .text               diskio.o
    0x08017630   0x000000f0   Code   RO         1145    .text               ccsbcs.o
    0x08017720   0x00000024   Code   RO         1239    .text               mc_w.l(memcpya.o)
    0x08017744   0x00000024   Code   RO         1241    .text               mc_w.l(memseta.o)
    0x08017768   0x00000024   Code   RO         1243    .text               mc_w.l(strstr.o)
    0x0801778c   0x00000018   Code   RO         1245    .text               mc_w.l(strncpy.o)
    0x080177a4   0x0000000e   Code   RO         1247    .text               mc_w.l(strlen.o)
    0x080177b2   0x00000002   PAD
    0x080177b4   0x00000044   Code   RO         1249    .text               mc_w.l(strtok.o)
    0x080177f8   0x0000001a   Code   RO         1546    .text               mc_w.l(atoi.o)
    0x08017812   0x000000b0   Code   RO         1548    .text               mf_w.l(fadd.o)
    0x080178c2   0x00000064   Code   RO         1550    .text               mf_w.l(fmul.o)
    0x08017926   0x0000007c   Code   RO         1552    .text               mf_w.l(fdiv.o)
    0x080179a2   0x0000014e   Code   RO         1554    .text               mf_w.l(dadd.o)
    0x08017af0   0x000000e4   Code   RO         1556    .text               mf_w.l(dmul.o)
    0x08017bd4   0x000000de   Code   RO         1558    .text               mf_w.l(ddiv.o)
    0x08017cb2   0x0000000a   Code   RO         1560    .text               mf_w.l(ffltui.o)
    0x08017cbc   0x00000022   Code   RO         1562    .text               mf_w.l(dflti.o)
    0x08017cde   0x0000001a   Code   RO         1564    .text               mf_w.l(dfltui.o)
    0x08017cf8   0x00000028   Code   RO         1566    .text               mf_w.l(ffixui.o)
    0x08017d20   0x0000003e   Code   RO         1568    .text               mf_w.l(dfixi.o)
    0x08017d5e   0x00000032   Code   RO         1570    .text               mf_w.l(dfixui.o)
    0x08017d90   0x00000026   Code   RO         1572    .text               mf_w.l(f2d.o)
    0x08017db6   0x00000002   PAD
    0x08017db8   0x00000030   Code   RO         1574    .text               mf_w.l(cdcmple.o)
    0x08017de8   0x00000030   Code   RO         1576    .text               mf_w.l(cdrcmple.o)
    0x08017e18   0x00000038   Code   RO         1578    .text               mf_w.l(d2f.o)
    0x08017e50   0x00000014   Code   RO         1580    .text               mf_w.l(cfcmple.o)
    0x08017e64   0x00000014   Code   RO         1582    .text               mf_w.l(cfrcmple.o)
    0x08017e78   0x0000002c   Code   RO         1648    .text               mc_w.l(uidiv.o)
    0x08017ea4   0x00000062   Code   RO         1650    .text               mc_w.l(uldiv.o)
    0x08017f06   0x0000001e   Code   RO         1652    .text               mc_w.l(llshl.o)
    0x08017f24   0x00000020   Code   RO         1654    .text               mc_w.l(llushr.o)
    0x08017f44   0x00000024   Code   RO         1656    .text               mc_w.l(llsshr.o)
    0x08017f68   0x0000009c   Code   RO         1667    .text               mc_w.l(strtod.o)
    0x08018004   0x00000070   Code   RO         1669    .text               mc_w.l(strtol.o)
    0x08018074   0x00000000   Code   RO         1671    .text               mc_w.l(iusefp.o)
    0x08018074   0x0000006e   Code   RO         1672    .text               mf_w.l(fepilogue.o)
    0x080180e2   0x000000ba   Code   RO         1674    .text               mf_w.l(depilogue.o)
    0x0801819c   0x0000002e   Code   RO         1676    .text               mf_w.l(dscalb.o)
    0x080181ca   0x000000a2   Code   RO         1678    .text               mf_w.l(dsqrt.o)
    0x0801826c   0x00000030   Code   RO         1680    .text               mf_w.l(dfixul.o)
    0x0801829c   0x00000024   Code   RO         1682    .text               mc_w.l(init.o)
    0x080182c0   0x00000008   Code   RO         1686    .text               mc_w.l(ctype_o.o)
    0x080182c8   0x00000012   Code   RO         1708    .text               mc_w.l(isspace_o.o)
    0x080182da   0x00000002   PAD
    0x080182dc   0x00000338   Code   RO         1714    .text               mc_w.l(scanf_fp.o)
    0x08018614   0x00000040   Code   RO         1718    .text               mc_w.l(_sgetc.o)
    0x08018654   0x0000009e   Code   RO         1720    .text               mc_w.l(_strtoul.o)
    0x080186f2   0x0000001c   Code   RO         1725    .text               mc_w.l(_chval.o)
    0x0801870e   0x00000018   Code   RO         1727    .text               mf_w.l(dfltul.o)
    0x08018726   0x0000005e   Code   RO         1737    .text               mc_w.l(__dclz77c.o)
    0x08018784   0x0000000a   Code   RO          620    i.I2C_Delay         i2c.o
    0x0801878e   0x00000002   PAD
    0x08018790   0x00000010   Code   RO          659    i.POWER_IOVCC_Reset  power.o
    0x080187a0   0x00000010   Code   RO          654    i.POWER_IOVCC_Set   power.o
    0x080187b0   0x00000010   Code   RO          649    i.POWER_VCI_Reset   power.o
    0x080187c0   0x00000010   Code   RO          644    i.POWER_VCI_Set     power.o
    0x080187d0   0x00000010   Code   RO          669    i.POWER_VSN_Reset   power.o
    0x080187e0   0x00000010   Code   RO          664    i.POWER_VSN_Set     power.o
    0x080187f0   0x00000014   Code   RO          679    i.POWER_VSP_Reset   power.o
    0x08018804   0x00000014   Code   RO          674    i.POWER_VSP_Set     power.o
    0x08018818   0x00000020   Code   RO         1490    i.__0printf         mc_w.l(printfa.o)
    0x08018838   0x00000028   Code   RO         1492    i.__0sprintf        mc_w.l(printfa.o)
    0x08018860   0x00000028   Code   RO         1601    i.__ARM_fpclassify  m_ws.l(fpclassify.o)
    0x08018888   0x00000008   Code   RO         1660    i.__aeabi_errno_addr  mc_w.l(errno.o)
    0x08018890   0x00000388   Code   RO         1616    i.__ieee754_rem_pio2  m_ws.l(rred.o)
    0x08018c18   0x000000fc   Code   RO         1584    i.__kernel_cos      m_ws.l(cos_i.o)
    0x08018d14   0x000000aa   Code   RO         1613    i.__kernel_poly     m_ws.l(poly.o)
    0x08018dbe   0x00000002   PAD
    0x08018dc0   0x000000ec   Code   RO         1621    i.__kernel_sin      m_ws.l(sin_i.o)
    0x08018eac   0x00000010   Code   RO         1587    i.__mathlib_dbl_divzero  m_ws.l(dunder.o)
    0x08018ebc   0x00000006   Code   RO         1588    i.__mathlib_dbl_infnan  m_ws.l(dunder.o)
    0x08018ec2   0x00000004   Code   RO         1589    i.__mathlib_dbl_infnan2  m_ws.l(dunder.o)
    0x08018ec6   0x0000000c   Code   RO         1590    i.__mathlib_dbl_invalid  m_ws.l(dunder.o)
    0x08018ed2   0x0000000e   Code   RO         1591    i.__mathlib_dbl_overflow  m_ws.l(dunder.o)
    0x08018ee0   0x00000010   Code   RO         1593    i.__mathlib_dbl_underflow  m_ws.l(dunder.o)
    0x08018ef0   0x0000000c   Code   RO         1661    i.__read_errno      mc_w.l(errno.o)
    0x08018efc   0x0000000e   Code   RO         1731    i.__scatterload_copy  mc_w.l(handlers.o)
    0x08018f0a   0x00000002   Code   RO         1732    i.__scatterload_null  mc_w.l(handlers.o)
    0x08018f0c   0x0000000e   Code   RO         1733    i.__scatterload_zeroinit  mc_w.l(handlers.o)
    0x08018f1a   0x00000002   PAD
    0x08018f1c   0x0000000c   Code   RO         1662    i.__set_errno       mc_w.l(errno.o)
    0x08018f28   0x00000184   Code   RO         1497    i._fp_digits        mc_w.l(printfa.o)
    0x080190ac   0x0000000e   Code   RO         1716    i._is_digit         mc_w.l(scanf_fp.o)
    0x080190ba   0x00000002   PAD
    0x080190bc   0x000006dc   Code   RO         1498    i._printf_core      mc_w.l(printfa.o)
    0x08019798   0x00000024   Code   RO         1499    i._printf_post_padding  mc_w.l(printfa.o)
    0x080197bc   0x0000002e   Code   RO         1500    i._printf_pre_padding  mc_w.l(printfa.o)
    0x080197ea   0x0000000a   Code   RO         1502    i._sputc            mc_w.l(printfa.o)
    0x080197f4   0x0000002a   Code   RO         1169    i.atof              m_ws.l(atof.o)
    0x0801981e   0x00000002   PAD
    0x08019820   0x0000009c   Code   RO         1173    i.cos               m_ws.l(cos.o)
    0x080198bc   0x00000284   Code   RO         1181    i.exp               m_ws.l(exp.o)
    0x08019b40   0x000000dc   Code   RO         1191    i.floor             m_ws.l(floor.o)
    0x08019c1c   0x00000050   Code   RO         1518    i.free              mc_w.l(malloc.o)
    0x08019c6c   0x0000035c   Code   RO         1604    i.log               m_ws.l(log.o)
    0x08019fc8   0x000000e4   Code   RO         1195    i.log10             m_ws.l(log10.o)
    0x0801a0ac   0x0000006c   Code   RO         1519    i.malloc            mc_w.l(malloc.o)
    0x0801a118   0x000009d8   Code   RO         1203    i.pow               m_ws.l(pow.o)
    0x0801aaf0   0x000000a0   Code   RO         1213    i.sin               m_ws.l(sin.o)
    0x0801ab90   0x0000004c   Code   RO         1221    i.sqrt              m_ws.l(sqrt.o)
    0x0801abdc   0x00000006   Data   RO          720    .constdata          led.o
    0x0801abe2   0x0000008d   Data   RO         1101    .constdata          ff.o
    0x0801ac6f   0x00000001   PAD
    0x0801ac70   0x000003ae   Data   RO         1146    .constdata          ccsbcs.o
    0x0801b01e   0x00000002   PAD
    0x0801b020   0x00000058   Data   RO         1182    .constdata          m_ws.l(exp.o)
    0x0801b078   0x00000088   Data   RO         1204    .constdata          m_ws.l(pow.o)
    0x0801b100   0x00000030   Data   RO         1585    .constdata          m_ws.l(cos_i.o)
    0x0801b130   0x00000038   Data   RO         1605    .constdata          m_ws.l(log.o)
    0x0801b168   0x00000008   Data   RO         1615    .constdata          m_ws.l(qnan.o)
    0x0801b170   0x000000c8   Data   RO         1618    .constdata          m_ws.l(rred.o)
    0x0801b238   0x00000028   Data   RO         1622    .constdata          m_ws.l(sin_i.o)
    0x0801b260   0x00000081   Data   RO         1687    .constdata          mc_w.l(ctype_o.o)
    0x0801b2e1   0x00000003   PAD
    0x0801b2e4   0x00000004   Data   RO         1688    .constdata          mc_w.l(ctype_o.o)
    0x0801b2e8   0x000000bd   Data   RO          209    .conststring        main.o
    0x0801b3a5   0x00000003   PAD
    0x0801b3a8   0x00000085   Data   RO          423    .conststring        board_conf.o
    0x0801b42d   0x00000003   PAD
    0x0801b430   0x0000009f   Data   RO          437    .conststring        usart.o
    0x0801b4cf   0x00000001   PAD
    0x0801b4d0   0x00000048   Data   RO          635    .conststring        power.o
    0x0801b518   0x0000004a   Data   RO          692    .conststring        digital_sensor.o
    0x0801b562   0x00000002   PAD
    0x0801b564   0x0000004a   Data   RO          736    .conststring        key.o
    0x0801b5ae   0x00000002   PAD
    0x0801b5b0   0x00000041   Data   RO          853    .conststring        lcd_test.o
    0x0801b5f1   0x00000003   PAD
    0x0801b5f4   0x00000bfc   Data   RO          954    .conststring        test_otp.o
    0x0801c1f0   0x000001af   Data   RO         1059    .conststring        common_otpcode_nt36672a_v3.o
    0x0801c39f   0x00000001   PAD
    0x0801c3a0   0x000000f7   Data   RO         1080    .conststring        nt36672a_fw_update_v1p0.o
    0x0801c497   0x00000001   PAD
    0x0801c498   0x00000020   Data   RO         1729    Region$$Table       anon$$obj.o


    Execution Region RW_IRAM1 (Base: 0x20000000, Size: 0x0001e768, Max: 0x00020000, ABSOLUTE, COMPRESSED[0x0000048c])

    Base Addr    Size         Type   Attr      Idx    E Section Name        Object

    0x20000000   0x00000010   Data   RW           68    .data               stm32f2xx_rcc.o
    0x20000010   0x00000014   Data   RW          191    .data               system_stm32f2xx.o
    0x20000024   0x00000001   Data   RW          210    .data               main.o
    0x20000025   0x00000006   Data   RW          376    .data               taskpolling.o
    0x2000002b   0x00000001   PAD
    0x2000002c   0x00000004   Data   RW          405    .data               systick.o
    0x20000030   0x00000025   Data   RW          438    .data               usart.o
    0x20000055   0x00000003   PAD
    0x20000058   0x0000000a   Data   RW          507    .data               timer.o
    0x20000062   0x00000002   PAD
    0x20000064   0x00000020   Data   RW          527    .data               admesy.o
    0x20000084   0x00000002   Data   RW          594    .data               adc.o
    0x20000086   0x00000002   PAD
    0x20000088   0x0000000d   Data   RW          609    .data               i2c.o
    0x20000095   0x00000001   Data   RW          693    .data               digital_sensor.o
    0x20000096   0x00000002   PAD
    0x20000098   0x0000000c   Data   RW          721    .data               led.o
    0x200000a4   0x0000000e   Data   RW          737    .data               key.o
    0x200000b2   0x00000002   Data   RW          755    .data               ssd2828.o
    0x200000b4   0x0000000a   Data   RW          777    .data               fpga.o
    0x200000be   0x00000004   Data   RW          799    .data               lcd.o
    0x200000c2   0x00000002   PAD
    0x200000c4   0x00000014   Data   RW          819    .data               sdcard.o
    0x200000d8   0x00000003   Data   RW          835    .data               bsp_bmp.o
    0x200000db   0x00000001   PAD
    0x200000dc   0x0000003c   Data   RW          854    .data               lcd_test.o
    0x20000118   0x00000031   Data   RW          955    .data               test_otp.o
    0x20000149   0x00000002   Data   RW         1026    .data               test_sdcard.o
    0x2000014b   0x00000001   PAD
    0x2000014c   0x0000093c   Data   RW         1045    .data               common_initialcode_6.5inch_cof_nt36682a_cmos_v4p0_20180704.o
    0x20000a88   0x00000005   Data   RW         1060    .data               common_otpcode_nt36672a_v3.o
    0x20000a8d   0x00000003   PAD
    0x20000a90   0x0000002d   Data   RW         1081    .data               nt36672a_fw_update_v1p0.o
    0x20000abd   0x00000003   PAD
    0x20000ac0   0x00000006   Data   RW         1102    .data               ff.o
    0x20000ac6   0x00000002   PAD
    0x20000ac8   0x00000004   Data   RW         1250    .data               mc_w.l(strtok.o)
    0x20000acc   0x00000004   Data   RW         1647    .data               mc_w.l(stdout.o)
    0x20000ad0   0x00000004   Data   RW         1658    .data               mc_w.l(mvars.o)
    0x20000ad4   0x00000004   Data   RW         1659    .data               mc_w.l(mvars.o)
    0x20000ad8   0x00000004   Data   RW         1663    .data               mc_w.l(errno.o)
    0x20000adc   0x00000400   Zero   RW          436    .bss                usart.o
    0x20000edc   0x00002020   Zero   RW          526    .bss                admesy.o
    0x20002efc   0x000000c4   Zero   RW          818    .bss                sdcard.o
    0x20002fc0   0x000025d0   Zero   RW          834    .bss                bsp_bmp.o
    0x20005590   0x00000020   Zero   RW          953    .bss                test_otp.o
    0x200055b0   0x0000041e   Zero   RW         1025    .bss                test_sdcard.o
    0x200059ce   0x00000002   PAD
    0x200059d0   0x00000798   Zero   RW         1079    .bss                nt36672a_fw_update_v1p0.o
    0x20006168   0x00000200   Zero   RW         1100    .bss                ff.o
    0x20006368   0x00018000   Zero   RW            2    HEAP                startup_stm32f2xx.o
    0x2001e368   0x00000400   Zero   RW            1    STACK               startup_stm32f2xx.o


==============================================================================

Image component sizes


      Code (inc. data)   RO Data    RW Data    ZI Data      Debug   Object Name

       816        174          0          2          0       2191   adc.o
      2656        684          0         32       8224       3952   admesy.o
      3256        212          0          0          0       7379   admesy_flicker.o
      1388        806        133          0          0       1073   board_conf.o
      1440        366          0          3       9680       5177   bsp_bmp.o
       240         24        942          0          0       1961   ccsbcs.o
         0          0          0       2364          0        981   common_initialcode_6.5inch_cof_nt36682a_cmos_v4p0_20180704.o
      2344        376        431          5          0       4628   common_otpcode_nt36672a_v3.o
       644        168         74          1          0       1921   digital_sensor.o
       360        130          0          0          0       3582   diskio.o
       964        348          0          0          0       2461   eeprom.o
     10324         82        141          6        512      36389   ff.o
      3772        840          0         10          0       9815   fpga.o
      1942         24          0         13          0       6989   i2c.o
      1816        514         74         14          0       2469   key.o
      3796         16          0          0          0       5971   kiss_fft.o
      2784        836          0          4          0       3818   lcd.o
      6388       1600         65         60          0       7742   lcd_test.o
       144         18          6         12          0       1386   led.o
       920        364        189          1          0      20840   main.o
       224         20          0          0          0       3301   misc.o
      5512       1472        247         45       1944      11348   nt36672a_fw_update_v1p0.o
      1180        308         72          0          0       4811   power.o
      6196        248          0         20        196      17861   sdcard.o
      2176        378          0          2          0       6046   ssd2828.o
        36          8        388          0      99328        800   startup_stm32f2xx.o
      1124         24          0          0          0      10350   stm32f2xx_adc.o
       936         32          0          0          0       6205   stm32f2xx_dma.o
      1544         14          0          0          0       5255   stm32f2xx_fsmc.o
       604         36          0          0          0     299581   stm32f2xx_gpio.o
        88          0          0          0          0       2145   stm32f2xx_it.o
      1416         48          0         16          0      10791   stm32f2xx_rcc.o
       496         18          0          0          0       7044   stm32f2xx_sdio.o
      3234         60          0          0          0      22724   stm32f2xx_tim.o
      1050         26          0          0          0       7572   stm32f2xx_usart.o
       480         40          0         20          0       1599   system_stm32f2xx.o
       324         80          0          4          0      18478   systick.o
       320         56          0          6          0        716   taskpolling.o
       324         22          0          0          0        567   test_ctp.o
      1388         92          0          0          0       1652   test_debug.o
       156         18          0          0          0        468   test_demo.o
       696        100          0          0          0        812   test_esd.o
       156         16          0          0          0        455   test_et1.o
       752        108          0          0          0        735   test_et2.o
       172          8          0          0          0        483   test_et3.o
       948         76          0          0          0       1099   test_od.o
       668         86          0          0          0        700   test_oqc1.o
      9100       2094       3068         49         32       6326   test_otp.o
        84          6          0          0          0        839   test_ra.o
       848         96          0          2       1054       2468   test_sdcard.o
       412         56          0         10          0       1599   timer.o
      7128       1846        159         37       1024      10922   usart.o

    ----------------------------------------------------------------------
     95772      15074       6040       2760     121996     596477   Object Totals
         0          0         32          0          0          0   (incl. Generated)
         6          0         19         22          2          0   (incl. Padding)

    ----------------------------------------------------------------------

      Code (inc. data)   RO Data    RW Data    ZI Data      Debug   Library Member Name

        42          0          0          0          0         84   atof.o
       156          8          0          0          0        104   cos.o
       252         22         48          0          0        124   cos_i.o
        68         10          0          0          0        408   dunder.o
       644         90         88          0          0        204   exp.o
       220         16          0          0          0         84   floor.o
        40          0          0          0          0         68   fpclassify.o
       860         52         56          0          0        256   log.o
       228         30          0          0          0        120   log10.o
       170          0          0          0          0         96   poly.o
      2520        190        136          0          0        324   pow.o
         0          0          8          0          0          0   qnan.o
       904         76        200          0          0        140   rred.o
       160         10          0          0          0        108   sin.o
       236         12         40          0          0        128   sin_i.o
        76          0          0          0          0         84   sqrt.o
        94          0          0          0          0          0   __dclz77c.o
        28          0          0          0          0         68   _chval.o
        64          0          0          0          0         84   _sgetc.o
       158          0          0          0          0         92   _strtoul.o
        26          0          0          0          0         80   atoi.o
         8          4        133          0          0         68   ctype_o.o
         0          0          0          0          0          0   entry.o
         0          0          0          0          0          0   entry10a.o
         0          0          0          0          0          0   entry11a.o
         8          4          0          0          0          0   entry2.o
         4          0          0          0          0          0   entry5.o
         0          0          0          0          0          0   entry7b.o
         0          0          0          0          0          0   entry8b.o
         8          4          0          0          0          0   entry9a.o
        32         16          0          4          0        204   errno.o
        30          0          0          0          0          0   handlers.o
        36          8          0          0          0         68   init.o
        18          0          0          0          0         76   isspace_o.o
         0          0          0          0          0          0   iusefp.o
        30          0          0          0          0         68   llshl.o
        36          0          0          0          0         68   llsshr.o
        32          0          0          0          0         68   llushr.o
       188         20          0          0          0        160   malloc.o
        36          0          0          0          0         68   memcpya.o
        36          0          0          0          0        108   memseta.o
         0          0          0          8          0          0   mvars.o
      2308         96          0          0          0        604   printfa.o
       838         12          0          0          0        216   scanf_fp.o
         0          0          0          4          0          0   stdout.o
        14          0          0          0          0         68   strlen.o
        24          0          0          0          0         76   strncpy.o
        36          0          0          0          0         80   strstr.o
       156         12          0          0          0        120   strtod.o
        68          6          0          4          0         80   strtok.o
       112          0          0          0          0         88   strtol.o
        44          0          0          0          0         80   uidiv.o
        98          0          0          0          0         92   uldiv.o
        48          0          0          0          0         68   cdcmple.o
        48          0          0          0          0         68   cdrcmple.o
        20          0          0          0          0         68   cfcmple.o
        20          0          0          0          0         68   cfrcmple.o
        56          0          0          0          0         88   d2f.o
       334          0          0          0          0        148   dadd.o
       222          0          0          0          0        100   ddiv.o
       186          0          0          0          0        176   depilogue.o
        62          0          0          0          0         80   dfixi.o
        50          0          0          0          0         76   dfixui.o
        48          0          0          0          0         68   dfixul.o
        34          0          0          0          0         76   dflti.o
        26          0          0          0          0         76   dfltui.o
        24          0          0          0          0         76   dfltul.o
       228          0          0          0          0         96   dmul.o
        46          0          0          0          0         80   dscalb.o
       162          0          0          0          0        100   dsqrt.o
        38          0          0          0          0         68   f2d.o
       176          0          0          0          0        140   fadd.o
       124          0          0          0          0         88   fdiv.o
       110          0          0          0          0        168   fepilogue.o
        40          0          0          0          0         68   ffixui.o
        10          0          0          0          0         68   ffltui.o
       100          0          0          0          0         76   fmul.o

    ----------------------------------------------------------------------
     13372        698        712         20          0       7304   Library Totals
        14          0          3          0          0          0   (incl. Padding)

    ----------------------------------------------------------------------

      Code (inc. data)   RO Data    RW Data    ZI Data      Debug   Library Name

      6576        516        576          0          0       2332   m_ws.l
      4570        182        133         20          0       2784   mc_w.l
      2212          0          0          0          0       2188   mf_w.l

    ----------------------------------------------------------------------
     13372        698        712         20          0       7304   Library Totals

    ----------------------------------------------------------------------

==============================================================================


      Code (inc. data)   RO Data    RW Data    ZI Data      Debug   

    109144      15772       6752       2780     121996     595693   Grand Totals
    109144      15772       6752       1164     121996     595693   ELF Image Totals (compressed)
    109144      15772       6752       1164          0          0   ROM Totals

==============================================================================

    Total RO  Size (Code + RO Data)               115896 ( 113.18kB)
    Total RW  Size (RW Data + ZI Data)            124776 ( 121.85kB)
    Total ROM Size (Code + RO Data + RW Data)     117060 ( 114.32kB)

==============================================================================

